SF:/home/noah/src/depyler/crates/depyler-analyzer/src/complexity.rs
FN:145,_RNCNvNtCs2CdUEHKseOX_16depyler_analyzer10complexity16count_statements0B5_
FN:58,_RNvNtCs2CdUEHKseOX_16depyler_analyzer10complexity14cognitive_body
FN:71,_RNvNtCs2CdUEHKseOX_16depyler_analyzer10complexity14cognitive_stmt
FN:39,_RNvNtCs2CdUEHKseOX_16depyler_analyzer10complexity15cyclomatic_body
FN:43,_RNvNtCs2CdUEHKseOX_16depyler_analyzer10complexity15cyclomatic_expr
FN:14,_RNvNtCs2CdUEHKseOX_16depyler_analyzer10complexity15cyclomatic_stmt
FN:134,_RNvNtCs2CdUEHKseOX_16depyler_analyzer10complexity16count_statements
FN:54,_RNvNtCs2CdUEHKseOX_16depyler_analyzer10complexity19calculate_cognitive
FN:118,_RNvNtCs2CdUEHKseOX_16depyler_analyzer10complexity19cognitive_condition
FN:3,_RNvNtCs2CdUEHKseOX_16depyler_analyzer10complexity20calculate_cyclomatic
FN:130,_RNvNtCs2CdUEHKseOX_16depyler_analyzer10complexity21calculate_max_nesting
FNDA:0,_RNCNvNtCs2CdUEHKseOX_16depyler_analyzer10complexity16count_statements0B5_
FNDA:0,_RNvNtCs2CdUEHKseOX_16depyler_analyzer10complexity14cognitive_body
FNDA:0,_RNvNtCs2CdUEHKseOX_16depyler_analyzer10complexity14cognitive_stmt
FNDA:0,_RNvNtCs2CdUEHKseOX_16depyler_analyzer10complexity15cyclomatic_body
FNDA:0,_RNvNtCs2CdUEHKseOX_16depyler_analyzer10complexity15cyclomatic_expr
FNDA:0,_RNvNtCs2CdUEHKseOX_16depyler_analyzer10complexity15cyclomatic_stmt
FNDA:0,_RNvNtCs2CdUEHKseOX_16depyler_analyzer10complexity16count_statements
FNDA:0,_RNvNtCs2CdUEHKseOX_16depyler_analyzer10complexity19calculate_cognitive
FNDA:0,_RNvNtCs2CdUEHKseOX_16depyler_analyzer10complexity19cognitive_condition
FNDA:0,_RNvNtCs2CdUEHKseOX_16depyler_analyzer10complexity20calculate_cyclomatic
FNDA:0,_RNvNtCs2CdUEHKseOX_16depyler_analyzer10complexity21calculate_max_nesting
FNF:11
FNH:0
DA:3,0
DA:4,0
DA:5,0
DA:7,0
DA:8,0
DA:9,0
DA:11,0
DA:12,0
DA:14,0
DA:15,0
DA:17,0
DA:18,0
DA:19,0
DA:20,0
DA:21,0
DA:22,0
DA:23,0
DA:24,0
DA:25,0
DA:26,0
DA:28,0
DA:29,0
DA:31,0
DA:32,0
DA:34,0
DA:35,0
DA:37,0
DA:39,0
DA:40,0
DA:41,0
DA:43,0
DA:44,0
DA:47,0
DA:48,0
DA:49,0
DA:50,0
DA:52,0
DA:54,0
DA:55,0
DA:56,0
DA:58,0
DA:59,0
DA:60,0
DA:62,0
DA:63,0
DA:64,0
DA:65,0
DA:66,0
DA:68,0
DA:69,0
DA:71,0
DA:72,0
DA:74,0
DA:75,0
DA:76,0
DA:77,0
DA:78,0
DA:79,0
DA:80,0
DA:81,0
DA:82,0
DA:83,0
DA:84,0
DA:85,0
DA:86,0
DA:87,0
DA:90,0
DA:91,0
DA:92,0
DA:93,0
DA:94,0
DA:95,0
DA:97,0
DA:99,0
DA:100,0
DA:101,0
DA:102,0
DA:103,0
DA:104,0
DA:105,0
DA:106,0
DA:108,0
DA:109,0
DA:110,0
DA:111,0
DA:112,0
DA:114,0
DA:116,0
DA:118,0
DA:119,0
DA:122,0
DA:123,0
DA:124,0
DA:125,0
DA:126,0
DA:128,0
DA:130,0
DA:131,0
DA:132,0
DA:134,0
DA:135,0
DA:137,0
DA:138,0
DA:139,0
DA:141,0
DA:142,0
DA:143,0
DA:144,0
DA:145,0
DA:147,0
DA:148,0
DA:152,0
DA:153,0
BRF:0
BRH:0
LF:114
LH:0
end_of_record
SF:/home/noah/src/depyler/crates/depyler-analyzer/src/lib.rs
FN:85,_RNCNvMCs2CdUEHKseOX_16depyler_analyzerNtB4_8Analyzer16analyze_function0B4_
FN:156,_RNCNvMCs2CdUEHKseOX_16depyler_analyzerNtB4_8Analyzer23calculate_type_coverage0B4_
FN:102,_RNCNvMCs2CdUEHKseOX_16depyler_analyzerNtB4_8Analyzer24calculate_module_metrics0B4_
FN:116,_RNCNvMCs2CdUEHKseOX_16depyler_analyzerNtB4_8Analyzer24calculate_module_metricss0_0B4_
FN:123,_RNCNvMCs2CdUEHKseOX_16depyler_analyzerNtB4_8Analyzer24calculate_module_metricss1_0B4_
FN:132,_RNCNvMCs2CdUEHKseOX_16depyler_analyzerNtB4_8Analyzer24calculate_module_metricss2_0B4_
FN:107,_RNCNvMCs2CdUEHKseOX_16depyler_analyzerNtB4_8Analyzer24calculate_module_metricss_0B4_
FN:63,_RNCNvMCs2CdUEHKseOX_16depyler_analyzerNtB4_8Analyzer7analyze0B4_
FN:76,_RNvMCs2CdUEHKseOX_16depyler_analyzerNtB2_8Analyzer16analyze_function
FN:146,_RNvMCs2CdUEHKseOX_16depyler_analyzerNtB2_8Analyzer23calculate_type_coverage
FN:100,_RNvMCs2CdUEHKseOX_16depyler_analyzerNtB2_8Analyzer24calculate_module_metrics
FN:53,_RNvMCs2CdUEHKseOX_16depyler_analyzerNtB2_8Analyzer3new
FN:59,_RNvMCs2CdUEHKseOX_16depyler_analyzerNtB2_8Analyzer7analyze
FN:183,_RNvXs_Cs2CdUEHKseOX_16depyler_analyzerNtB4_8AnalyzerNtNtCs9sjCchOt1K7_4core7default7Default7default
FNDA:0,_RNCNvMCs2CdUEHKseOX_16depyler_analyzerNtB4_8Analyzer16analyze_function0B4_
FNDA:0,_RNCNvMCs2CdUEHKseOX_16depyler_analyzerNtB4_8Analyzer23calculate_type_coverage0B4_
FNDA:0,_RNCNvMCs2CdUEHKseOX_16depyler_analyzerNtB4_8Analyzer24calculate_module_metrics0B4_
FNDA:0,_RNCNvMCs2CdUEHKseOX_16depyler_analyzerNtB4_8Analyzer24calculate_module_metricss0_0B4_
FNDA:0,_RNCNvMCs2CdUEHKseOX_16depyler_analyzerNtB4_8Analyzer24calculate_module_metricss1_0B4_
FNDA:0,_RNCNvMCs2CdUEHKseOX_16depyler_analyzerNtB4_8Analyzer24calculate_module_metricss2_0B4_
FNDA:0,_RNCNvMCs2CdUEHKseOX_16depyler_analyzerNtB4_8Analyzer24calculate_module_metricss_0B4_
FNDA:0,_RNCNvMCs2CdUEHKseOX_16depyler_analyzerNtB4_8Analyzer7analyze0B4_
FNDA:0,_RNvMCs2CdUEHKseOX_16depyler_analyzerNtB2_8Analyzer16analyze_function
FNDA:0,_RNvMCs2CdUEHKseOX_16depyler_analyzerNtB2_8Analyzer23calculate_type_coverage
FNDA:0,_RNvMCs2CdUEHKseOX_16depyler_analyzerNtB2_8Analyzer24calculate_module_metrics
FNDA:0,_RNvMCs2CdUEHKseOX_16depyler_analyzerNtB2_8Analyzer3new
FNDA:0,_RNvMCs2CdUEHKseOX_16depyler_analyzerNtB2_8Analyzer7analyze
FNDA:0,_RNvXs_Cs2CdUEHKseOX_16depyler_analyzerNtB4_8AnalyzerNtNtCs9sjCchOt1K7_4core7default7Default7default
FNF:14
FNH:0
DA:53,0
DA:54,0
DA:55,0
DA:56,0
DA:57,0
DA:59,0
DA:60,0
DA:61,0
DA:62,0
DA:63,0
DA:64,0
DA:66,0
DA:67,0
DA:68,0
DA:69,0
DA:70,0
DA:71,0
DA:72,0
DA:73,0
DA:74,0
DA:76,0
DA:77,0
DA:78,0
DA:79,0
DA:80,0
DA:81,0
DA:82,0
DA:83,0
DA:84,0
DA:85,0
DA:86,0
DA:88,0
DA:89,0
DA:90,0
DA:91,0
DA:92,0
DA:93,0
DA:94,0
DA:95,0
DA:96,0
DA:97,0
DA:98,0
DA:100,0
DA:101,0
DA:102,0
DA:104,0
DA:105,0
DA:106,0
DA:107,0
DA:108,0
DA:109,0
DA:111,0
DA:114,0
DA:115,0
DA:116,0
DA:117,0
DA:118,0
DA:120,0
DA:121,0
DA:122,0
DA:123,0
DA:124,0
DA:125,0
DA:127,0
DA:130,0
DA:131,0
DA:132,0
DA:133,0
DA:134,0
DA:135,0
DA:136,0
DA:137,0
DA:138,0
DA:139,0
DA:140,0
DA:141,0
DA:142,0
DA:143,0
DA:144,0
DA:146,0
DA:147,0
DA:148,0
DA:149,0
DA:151,0
DA:152,0
DA:153,0
DA:154,0
DA:155,0
DA:156,0
DA:157,0
DA:159,0
DA:160,0
DA:161,0
DA:164,0
DA:165,0
DA:166,0
DA:167,0
DA:169,0
DA:172,0
DA:173,0
DA:174,0
DA:175,0
DA:176,0
DA:177,0
DA:178,0
DA:179,0
DA:183,0
DA:184,0
DA:185,0
BRF:0
BRH:0
LF:117
LH:0
end_of_record
SF:/home/noah/src/depyler/crates/depyler-analyzer/src/metrics.rs
FN:85,_RNvMs0_NtCs2CdUEHKseOX_16depyler_analyzer7metricsNtB5_18PerformanceProfile9calculate
FN:51,_RNvMs_NtCs2CdUEHKseOX_16depyler_analyzer7metricsNtB4_22ComplexityDistribution3add
FN:42,_RNvMs_NtCs2CdUEHKseOX_16depyler_analyzer7metricsNtB4_22ComplexityDistribution3new
FN:60,_RNvMs_NtCs2CdUEHKseOX_16depyler_analyzer7metricsNtB4_22ComplexityDistribution5total
FN:64,_RNvMs_NtCs2CdUEHKseOX_16depyler_analyzer7metricsNtB4_22ComplexityDistribution7average
FN:36,_RNvXNtCs2CdUEHKseOX_16depyler_analyzer7metricsNtB2_22ComplexityDistributionNtNtCs9sjCchOt1K7_4core7default7Default7default
FNDA:0,_RNvMs0_NtCs2CdUEHKseOX_16depyler_analyzer7metricsNtB5_18PerformanceProfile9calculate
FNDA:0,_RNvMs_NtCs2CdUEHKseOX_16depyler_analyzer7metricsNtB4_22ComplexityDistribution3add
FNDA:0,_RNvMs_NtCs2CdUEHKseOX_16depyler_analyzer7metricsNtB4_22ComplexityDistribution3new
FNDA:0,_RNvMs_NtCs2CdUEHKseOX_16depyler_analyzer7metricsNtB4_22ComplexityDistribution5total
FNDA:0,_RNvMs_NtCs2CdUEHKseOX_16depyler_analyzer7metricsNtB4_22ComplexityDistribution7average
FNDA:0,_RNvXNtCs2CdUEHKseOX_16depyler_analyzer7metricsNtB2_22ComplexityDistributionNtNtCs9sjCchOt1K7_4core7default7Default7default
FNF:6
FNH:0
DA:36,0
DA:37,0
DA:38,0
DA:42,0
DA:43,0
DA:44,0
DA:45,0
DA:46,0
DA:47,0
DA:48,0
DA:49,0
DA:51,0
DA:52,0
DA:53,0
DA:54,0
DA:55,0
DA:56,0
DA:58,0
DA:60,0
DA:61,0
DA:62,0
DA:64,0
DA:65,0
DA:66,0
DA:67,0
DA:68,0
DA:69,0
DA:70,0
DA:71,0
DA:72,0
DA:73,0
DA:85,0
DA:86,0
DA:87,0
DA:88,0
DA:89,0
DA:90,0
DA:92,0
DA:94,0
DA:95,0
DA:97,0
DA:99,0
DA:100,0
DA:102,0
DA:104,0
DA:105,0
DA:106,0
BRF:0
BRH:0
LF:47
LH:0
end_of_record
SF:/home/noah/src/depyler/crates/depyler-analyzer/src/type_flow.rs
FN:216,_RNCNvMs1_NtCs2CdUEHKseOX_16depyler_analyzer9type_flowNtB7_14TypeInferencer10infer_expr0B9_
FN:108,_RNvMs1_NtCs2CdUEHKseOX_16depyler_analyzer9type_flowNtB5_14TypeInferencer10infer_body
FN:154,_RNvMs1_NtCs2CdUEHKseOX_16depyler_analyzer9type_flowNtB5_14TypeInferencer10infer_expr
FN:115,_RNvMs1_NtCs2CdUEHKseOX_16depyler_analyzer9type_flowNtB5_14TypeInferencer10infer_stmt
FN:96,_RNvMs1_NtCs2CdUEHKseOX_16depyler_analyzer9type_flowNtB5_14TypeInferencer14infer_function
FN:258,_RNvMs1_NtCs2CdUEHKseOX_16depyler_analyzer9type_flowNtB5_14TypeInferencer14infer_unary_op
FN:224,_RNvMs1_NtCs2CdUEHKseOX_16depyler_analyzer9type_flowNtB5_14TypeInferencer15infer_binary_op
FN:274,_RNvMs1_NtCs2CdUEHKseOX_16depyler_analyzer9type_flowNtB5_14TypeInferencer16get_element_type
FN:90,_RNvMs1_NtCs2CdUEHKseOX_16depyler_analyzer9type_flowNtB5_14TypeInferencer3new
FN:66,_RNvMs_NtCs2CdUEHKseOX_16depyler_analyzer9type_flowNtB4_15TypeEnvironment12get_var_type
FN:70,_RNvMs_NtCs2CdUEHKseOX_16depyler_analyzer9type_flowNtB4_15TypeEnvironment12set_var_type
FN:35,_RNvMs_NtCs2CdUEHKseOX_16depyler_analyzer9type_flowNtB4_15TypeEnvironment21add_builtin_functions
FN:74,_RNvMs_NtCs2CdUEHKseOX_16depyler_analyzer9type_flowNtB4_15TypeEnvironment22get_function_signature
FN:24,_RNvMs_NtCs2CdUEHKseOX_16depyler_analyzer9type_flowNtB4_15TypeEnvironment3new
FN:18,_RNvXNtCs2CdUEHKseOX_16depyler_analyzer9type_flowNtB2_15TypeEnvironmentNtNtCs9sjCchOt1K7_4core7default7Default7default
FN:84,_RNvXs0_NtCs2CdUEHKseOX_16depyler_analyzer9type_flowNtB5_14TypeInferencerNtNtCs9sjCchOt1K7_4core7default7Default7default
FNDA:0,_RNCNvMs1_NtCs2CdUEHKseOX_16depyler_analyzer9type_flowNtB7_14TypeInferencer10infer_expr0B9_
FNDA:0,_RNvMs1_NtCs2CdUEHKseOX_16depyler_analyzer9type_flowNtB5_14TypeInferencer10infer_body
FNDA:0,_RNvMs1_NtCs2CdUEHKseOX_16depyler_analyzer9type_flowNtB5_14TypeInferencer10infer_expr
FNDA:0,_RNvMs1_NtCs2CdUEHKseOX_16depyler_analyzer9type_flowNtB5_14TypeInferencer10infer_stmt
FNDA:0,_RNvMs1_NtCs2CdUEHKseOX_16depyler_analyzer9type_flowNtB5_14TypeInferencer14infer_function
FNDA:0,_RNvMs1_NtCs2CdUEHKseOX_16depyler_analyzer9type_flowNtB5_14TypeInferencer14infer_unary_op
FNDA:0,_RNvMs1_NtCs2CdUEHKseOX_16depyler_analyzer9type_flowNtB5_14TypeInferencer15infer_binary_op
FNDA:0,_RNvMs1_NtCs2CdUEHKseOX_16depyler_analyzer9type_flowNtB5_14TypeInferencer16get_element_type
FNDA:0,_RNvMs1_NtCs2CdUEHKseOX_16depyler_analyzer9type_flowNtB5_14TypeInferencer3new
FNDA:0,_RNvMs_NtCs2CdUEHKseOX_16depyler_analyzer9type_flowNtB4_15TypeEnvironment12get_var_type
FNDA:0,_RNvMs_NtCs2CdUEHKseOX_16depyler_analyzer9type_flowNtB4_15TypeEnvironment12set_var_type
FNDA:0,_RNvMs_NtCs2CdUEHKseOX_16depyler_analyzer9type_flowNtB4_15TypeEnvironment21add_builtin_functions
FNDA:0,_RNvMs_NtCs2CdUEHKseOX_16depyler_analyzer9type_flowNtB4_15TypeEnvironment22get_function_signature
FNDA:0,_RNvMs_NtCs2CdUEHKseOX_16depyler_analyzer9type_flowNtB4_15TypeEnvironment3new
FNDA:0,_RNvXNtCs2CdUEHKseOX_16depyler_analyzer9type_flowNtB2_15TypeEnvironmentNtNtCs9sjCchOt1K7_4core7default7Default7default
FNDA:0,_RNvXs0_NtCs2CdUEHKseOX_16depyler_analyzer9type_flowNtB5_14TypeInferencerNtNtCs9sjCchOt1K7_4core7default7Default7default
FNF:16
FNH:0
DA:18,0
DA:19,0
DA:20,0
DA:24,0
DA:25,0
DA:26,0
DA:27,0
DA:28,0
DA:29,0
DA:30,0
DA:31,0
DA:32,0
DA:33,0
DA:35,0
DA:36,0
DA:37,0
DA:38,0
DA:39,0
DA:40,0
DA:41,0
DA:42,0
DA:43,0
DA:44,0
DA:45,0
DA:46,0
DA:47,0
DA:48,0
DA:49,0
DA:50,0
DA:51,0
DA:52,0
DA:55,0
DA:56,0
DA:57,0
DA:58,0
DA:59,0
DA:60,0
DA:61,0
DA:62,0
DA:63,0
DA:64,0
DA:66,0
DA:67,0
DA:68,0
DA:70,0
DA:71,0
DA:72,0
DA:74,0
DA:75,0
DA:76,0
DA:84,0
DA:85,0
DA:86,0
DA:90,0
DA:91,0
DA:92,0
DA:93,0
DA:94,0
DA:96,0
DA:98,0
DA:99,0
DA:100,0
DA:103,0
DA:105,0
DA:106,0
DA:108,0
DA:109,0
DA:110,0
DA:112,0
DA:113,0
DA:115,0
DA:116,0
DA:117,0
DA:118,0
DA:119,0
DA:122,0
DA:123,0
DA:124,0
DA:125,0
DA:126,0
DA:127,0
DA:128,0
DA:129,0
DA:130,0
DA:132,0
DA:133,0
DA:134,0
DA:136,0
DA:137,0
DA:138,0
DA:139,0
DA:140,0
DA:142,0
DA:143,0
DA:144,0
DA:145,0
DA:147,0
DA:148,0
DA:151,0
DA:152,0
DA:154,0
DA:155,0
DA:156,0
DA:157,0
DA:158,0
DA:159,0
DA:160,0
DA:161,0
DA:163,0
DA:164,0
DA:165,0
DA:166,0
DA:167,0
DA:168,0
DA:169,0
DA:170,0
DA:171,0
DA:173,0
DA:174,0
DA:175,0
DA:177,0
DA:179,0
DA:180,0
DA:184,0
DA:185,0
DA:187,0
DA:190,0
DA:191,0
DA:192,0
DA:193,0
DA:195,0
DA:196,0
DA:197,0
DA:199,0
DA:200,0
DA:203,0
DA:204,0
DA:205,0
DA:207,0
DA:208,0
DA:209,0
DA:210,0
DA:213,0
DA:214,0
DA:215,0
DA:216,0
DA:217,0
DA:218,0
DA:220,0
DA:222,0
DA:224,0
DA:227,0
DA:230,0
DA:231,0
DA:232,0
DA:233,0
DA:235,0
DA:240,0
DA:243,0
DA:246,0
DA:247,0
DA:249,0
DA:253,0
DA:254,0
DA:256,0
DA:258,0
DA:261,0
DA:262,0
DA:263,0
DA:265,0
DA:266,0
DA:268,0
DA:272,0
DA:274,0
DA:275,0
DA:276,0
DA:277,0
DA:278,0
DA:279,0
DA:281,0
DA:284,0
DA:285,0
DA:286,0
DA:288,0
BRF:0
BRH:0
LF:185
LH:0
end_of_record
SF:/home/noah/src/depyler/crates/depyler-core/src/ast_bridge.rs
FN:498,_RNCNCNvNtCs1ln2akHD1ak_12depyler_core10ast_bridge20estimate_stack_depth00B7_
FN:455,_RNCNvNtCs1ln2akHD1ak_12depyler_core10ast_bridge14has_panic_risk0B5_
FN:397,_RNCNvNtCs1ln2akHD1ak_12depyler_core10ast_bridge16has_side_effects0B5_
FN:343,_RNCNvNtCs1ln2akHD1ak_12depyler_core10ast_bridge19convert_import_from0B5_
FN:488,_RNCNvNtCs1ln2akHD1ak_12depyler_core10ast_bridge20estimate_stack_depth0B5_
FN:373,_RNvNtCs1ln2akHD1ak_12depyler_core10ast_bridge10check_pure
FN:121,_RNvNtCs1ln2akHD1ak_12depyler_core10ast_bridge12convert_body
FN:192,_RNvNtCs1ln2akHD1ak_12depyler_core10ast_bridge12convert_expr
FN:125,_RNvNtCs1ln2akHD1ak_12depyler_core10ast_bridge12convert_stmt
FN:77,_RNvNtCs1ln2akHD1ak_12depyler_core10ast_bridge12extract_type
FN:282,_RNvNtCs1ln2akHD1ak_12depyler_core10ast_bridge13convert_binop
FN:309,_RNvNtCs1ln2akHD1ak_12depyler_core10ast_bridge13convert_cmpop
FN:5,_RNvNtCs1ln2akHD1ak_12depyler_core10ast_bridge13python_to_hir
FN:323,_RNvNtCs1ln2akHD1ak_12depyler_core10ast_bridge14convert_import
FN:12,_RNvNtCs1ln2akHD1ak_12depyler_core10ast_bridge14convert_module
FN:442,_RNvNtCs1ln2akHD1ak_12depyler_core10ast_bridge14has_panic_risk
FN:300,_RNvNtCs1ln2akHD1ak_12depyler_core10ast_bridge15convert_unaryop
FN:432,_RNvNtCs1ln2akHD1ak_12depyler_core10ast_bridge16check_panic_free
FN:36,_RNvNtCs1ln2akHD1ak_12depyler_core10ast_bridge16convert_function
FN:383,_RNvNtCs1ln2akHD1ak_12depyler_core10ast_bridge16has_side_effects
FN:406,_RNvNtCs1ln2akHD1ak_12depyler_core10ast_bridge17check_termination
FN:53,_RNvNtCs1ln2akHD1ak_12depyler_core10ast_bridge18convert_parameters
FN:422,_RNvNtCs1ln2akHD1ak_12depyler_core10ast_bridge18is_finite_iterator
FN:342,_RNvNtCs1ln2akHD1ak_12depyler_core10ast_bridge19convert_import_from
FN:467,_RNvNtCs1ln2akHD1ak_12depyler_core10ast_bridge19expr_has_panic_risk
FN:69,_RNvNtCs1ln2akHD1ak_12depyler_core10ast_bridge19extract_return_type
FN:487,_RNvNtCs1ln2akHD1ak_12depyler_core10ast_bridge20estimate_stack_depth
FN:185,_RNvNtCs1ln2akHD1ak_12depyler_core10ast_bridge21extract_assign_target
FN:482,_RNvNtCs1ln2akHD1ak_12depyler_core10ast_bridge25calculate_max_stack_depth
FN:364,_RNvNtCs1ln2akHD1ak_12depyler_core10ast_bridge27analyze_function_properties
FN:517,_RNvNtNtCs1ln2akHD1ak_12depyler_core10ast_bridge5tests19parse_python_to_hir
FN:725,_RNvNtNtCs1ln2akHD1ak_12depyler_core10ast_bridge5testss_19test_function_calls
FN:640,_RNvNtNtCs1ln2akHD1ak_12depyler_core10ast_bridge5testss_21test_expression_types
FN:691,_RNvNtNtCs1ln2akHD1ak_12depyler_core10ast_bridge5testss_21test_unary_operations
FN:589,_RNvNtNtCs1ln2akHD1ak_12depyler_core10ast_bridge5testss_22test_binary_operations
FN:552,_RNvNtNtCs1ln2akHD1ak_12depyler_core10ast_bridge5testss_22test_import_conversion
FN:618,_RNvNtNtCs1ln2akHD1ak_12depyler_core10ast_bridge5testss_24test_for_loop_conversion
FN:675,_RNvNtNtCs1ln2akHD1ak_12depyler_core10ast_bridge5testss_25test_comparison_operators
FN:562,_RNvNtNtCs1ln2akHD1ak_12depyler_core10ast_bridge5testss_28test_control_flow_conversion
FN:528,_RNvNtNtCs1ln2akHD1ak_12depyler_core10ast_bridge5testss_31test_simple_function_conversion
FN:542,_RNvNtNtCs1ln2akHD1ak_12depyler_core10ast_bridge5testss_31test_type_annotation_conversion
FN:602,_RNvNtNtCs1ln2akHD1ak_12depyler_core10ast_bridge5testss_33test_function_properties_analysis
FN:327,_RNCNvNtCs1ln2akHD1ak_12depyler_core10ast_bridge14convert_import0B5_
FN:348,_RNCNvNtCs1ln2akHD1ak_12depyler_core10ast_bridge19convert_import_froms_0B5_
FN:327,_RNCNvNtCsj61Gn7TPfaI_12depyler_core10ast_bridge14convert_import0B5_
FN:348,_RNCNvNtCsj61Gn7TPfaI_12depyler_core10ast_bridge19convert_import_froms_0B5_
FN:498,_RNCNCNvNtCsj61Gn7TPfaI_12depyler_core10ast_bridge20estimate_stack_depth00B7_
FN:455,_RNCNvNtCsj61Gn7TPfaI_12depyler_core10ast_bridge14has_panic_risk0B5_
FN:397,_RNCNvNtCsj61Gn7TPfaI_12depyler_core10ast_bridge16has_side_effects0B5_
FN:343,_RNCNvNtCsj61Gn7TPfaI_12depyler_core10ast_bridge19convert_import_from0B5_
FN:488,_RNCNvNtCsj61Gn7TPfaI_12depyler_core10ast_bridge20estimate_stack_depth0B5_
FN:373,_RNvNtCsj61Gn7TPfaI_12depyler_core10ast_bridge10check_pure
FN:121,_RNvNtCsj61Gn7TPfaI_12depyler_core10ast_bridge12convert_body
FN:192,_RNvNtCsj61Gn7TPfaI_12depyler_core10ast_bridge12convert_expr
FN:125,_RNvNtCsj61Gn7TPfaI_12depyler_core10ast_bridge12convert_stmt
FN:77,_RNvNtCsj61Gn7TPfaI_12depyler_core10ast_bridge12extract_type
FN:282,_RNvNtCsj61Gn7TPfaI_12depyler_core10ast_bridge13convert_binop
FN:309,_RNvNtCsj61Gn7TPfaI_12depyler_core10ast_bridge13convert_cmpop
FN:5,_RNvNtCsj61Gn7TPfaI_12depyler_core10ast_bridge13python_to_hir
FN:323,_RNvNtCsj61Gn7TPfaI_12depyler_core10ast_bridge14convert_import
FN:12,_RNvNtCsj61Gn7TPfaI_12depyler_core10ast_bridge14convert_module
FN:442,_RNvNtCsj61Gn7TPfaI_12depyler_core10ast_bridge14has_panic_risk
FN:300,_RNvNtCsj61Gn7TPfaI_12depyler_core10ast_bridge15convert_unaryop
FN:432,_RNvNtCsj61Gn7TPfaI_12depyler_core10ast_bridge16check_panic_free
FN:36,_RNvNtCsj61Gn7TPfaI_12depyler_core10ast_bridge16convert_function
FN:383,_RNvNtCsj61Gn7TPfaI_12depyler_core10ast_bridge16has_side_effects
FN:406,_RNvNtCsj61Gn7TPfaI_12depyler_core10ast_bridge17check_termination
FN:53,_RNvNtCsj61Gn7TPfaI_12depyler_core10ast_bridge18convert_parameters
FN:422,_RNvNtCsj61Gn7TPfaI_12depyler_core10ast_bridge18is_finite_iterator
FN:342,_RNvNtCsj61Gn7TPfaI_12depyler_core10ast_bridge19convert_import_from
FN:467,_RNvNtCsj61Gn7TPfaI_12depyler_core10ast_bridge19expr_has_panic_risk
FN:69,_RNvNtCsj61Gn7TPfaI_12depyler_core10ast_bridge19extract_return_type
FN:487,_RNvNtCsj61Gn7TPfaI_12depyler_core10ast_bridge20estimate_stack_depth
FN:185,_RNvNtCsj61Gn7TPfaI_12depyler_core10ast_bridge21extract_assign_target
FN:482,_RNvNtCsj61Gn7TPfaI_12depyler_core10ast_bridge25calculate_max_stack_depth
FN:364,_RNvNtCsj61Gn7TPfaI_12depyler_core10ast_bridge27analyze_function_properties
FNDA:1,_RNCNCNvNtCs1ln2akHD1ak_12depyler_core10ast_bridge20estimate_stack_depth00B7_
FNDA:1,_RNCNvNtCs1ln2akHD1ak_12depyler_core10ast_bridge14has_panic_risk0B5_
FNDA:1,_RNCNvNtCs1ln2akHD1ak_12depyler_core10ast_bridge16has_side_effects0B5_
FNDA:2,_RNCNvNtCs1ln2akHD1ak_12depyler_core10ast_bridge19convert_import_from0B5_
FNDA:25,_RNCNvNtCs1ln2akHD1ak_12depyler_core10ast_bridge20estimate_stack_depth0B5_
FNDA:15,_RNvNtCs1ln2akHD1ak_12depyler_core10ast_bridge10check_pure
FNDA:20,_RNvNtCs1ln2akHD1ak_12depyler_core10ast_bridge12convert_body
FNDA:68,_RNvNtCs1ln2akHD1ak_12depyler_core10ast_bridge12convert_expr
FNDA:25,_RNvNtCs1ln2akHD1ak_12depyler_core10ast_bridge12convert_stmt
FNDA:32,_RNvNtCs1ln2akHD1ak_12depyler_core10ast_bridge12extract_type
FNDA:10,_RNvNtCs1ln2akHD1ak_12depyler_core10ast_bridge13convert_binop
FNDA:3,_RNvNtCs1ln2akHD1ak_12depyler_core10ast_bridge13convert_cmpop
FNDA:15,_RNvNtCs1ln2akHD1ak_12depyler_core10ast_bridge13python_to_hir
FNDA:1,_RNvNtCs1ln2akHD1ak_12depyler_core10ast_bridge14convert_import
FNDA:15,_RNvNtCs1ln2akHD1ak_12depyler_core10ast_bridge14convert_module
FNDA:24,_RNvNtCs1ln2akHD1ak_12depyler_core10ast_bridge14has_panic_risk
FNDA:2,_RNvNtCs1ln2akHD1ak_12depyler_core10ast_bridge15convert_unaryop
FNDA:15,_RNvNtCs1ln2akHD1ak_12depyler_core10ast_bridge16check_panic_free
FNDA:15,_RNvNtCs1ln2akHD1ak_12depyler_core10ast_bridge16convert_function
FNDA:25,_RNvNtCs1ln2akHD1ak_12depyler_core10ast_bridge16has_side_effects
FNDA:15,_RNvNtCs1ln2akHD1ak_12depyler_core10ast_bridge17check_termination
FNDA:15,_RNvNtCs1ln2akHD1ak_12depyler_core10ast_bridge18convert_parameters
FNDA:1,_RNvNtCs1ln2akHD1ak_12depyler_core10ast_bridge18is_finite_iterator
FNDA:2,_RNvNtCs1ln2akHD1ak_12depyler_core10ast_bridge19convert_import_from
FNDA:54,_RNvNtCs1ln2akHD1ak_12depyler_core10ast_bridge19expr_has_panic_risk
FNDA:15,_RNvNtCs1ln2akHD1ak_12depyler_core10ast_bridge19extract_return_type
FNDA:20,_RNvNtCs1ln2akHD1ak_12depyler_core10ast_bridge20estimate_stack_depth
FNDA:5,_RNvNtCs1ln2akHD1ak_12depyler_core10ast_bridge21extract_assign_target
FNDA:15,_RNvNtCs1ln2akHD1ak_12depyler_core10ast_bridge25calculate_max_stack_depth
FNDA:15,_RNvNtCs1ln2akHD1ak_12depyler_core10ast_bridge27analyze_function_properties
FNDA:11,_RNvNtNtCs1ln2akHD1ak_12depyler_core10ast_bridge5tests19parse_python_to_hir
FNDA:1,_RNvNtNtCs1ln2akHD1ak_12depyler_core10ast_bridge5testss_19test_function_calls
FNDA:1,_RNvNtNtCs1ln2akHD1ak_12depyler_core10ast_bridge5testss_21test_expression_types
FNDA:1,_RNvNtNtCs1ln2akHD1ak_12depyler_core10ast_bridge5testss_21test_unary_operations
FNDA:1,_RNvNtNtCs1ln2akHD1ak_12depyler_core10ast_bridge5testss_22test_binary_operations
FNDA:1,_RNvNtNtCs1ln2akHD1ak_12depyler_core10ast_bridge5testss_22test_import_conversion
FNDA:1,_RNvNtNtCs1ln2akHD1ak_12depyler_core10ast_bridge5testss_24test_for_loop_conversion
FNDA:1,_RNvNtNtCs1ln2akHD1ak_12depyler_core10ast_bridge5testss_25test_comparison_operators
FNDA:1,_RNvNtNtCs1ln2akHD1ak_12depyler_core10ast_bridge5testss_28test_control_flow_conversion
FNDA:1,_RNvNtNtCs1ln2akHD1ak_12depyler_core10ast_bridge5testss_31test_simple_function_conversion
FNDA:1,_RNvNtNtCs1ln2akHD1ak_12depyler_core10ast_bridge5testss_31test_type_annotation_conversion
FNDA:1,_RNvNtNtCs1ln2akHD1ak_12depyler_core10ast_bridge5testss_33test_function_properties_analysis
FNDA:1,_RNCNvNtCs1ln2akHD1ak_12depyler_core10ast_bridge14convert_import0B5_
FNDA:4,_RNCNvNtCs1ln2akHD1ak_12depyler_core10ast_bridge19convert_import_froms_0B5_
FNDA:0,_RNCNvNtCsj61Gn7TPfaI_12depyler_core10ast_bridge14convert_import0B5_
FNDA:0,_RNCNvNtCsj61Gn7TPfaI_12depyler_core10ast_bridge19convert_import_froms_0B5_
FNDA:0,_RNCNCNvNtCsj61Gn7TPfaI_12depyler_core10ast_bridge20estimate_stack_depth00B7_
FNDA:0,_RNCNvNtCsj61Gn7TPfaI_12depyler_core10ast_bridge14has_panic_risk0B5_
FNDA:0,_RNCNvNtCsj61Gn7TPfaI_12depyler_core10ast_bridge16has_side_effects0B5_
FNDA:0,_RNCNvNtCsj61Gn7TPfaI_12depyler_core10ast_bridge19convert_import_from0B5_
FNDA:1,_RNCNvNtCsj61Gn7TPfaI_12depyler_core10ast_bridge20estimate_stack_depth0B5_
FNDA:1,_RNvNtCsj61Gn7TPfaI_12depyler_core10ast_bridge10check_pure
FNDA:1,_RNvNtCsj61Gn7TPfaI_12depyler_core10ast_bridge12convert_body
FNDA:3,_RNvNtCsj61Gn7TPfaI_12depyler_core10ast_bridge12convert_expr
FNDA:1,_RNvNtCsj61Gn7TPfaI_12depyler_core10ast_bridge12convert_stmt
FNDA:3,_RNvNtCsj61Gn7TPfaI_12depyler_core10ast_bridge12extract_type
FNDA:1,_RNvNtCsj61Gn7TPfaI_12depyler_core10ast_bridge13convert_binop
FNDA:0,_RNvNtCsj61Gn7TPfaI_12depyler_core10ast_bridge13convert_cmpop
FNDA:1,_RNvNtCsj61Gn7TPfaI_12depyler_core10ast_bridge13python_to_hir
FNDA:0,_RNvNtCsj61Gn7TPfaI_12depyler_core10ast_bridge14convert_import
FNDA:1,_RNvNtCsj61Gn7TPfaI_12depyler_core10ast_bridge14convert_module
FNDA:1,_RNvNtCsj61Gn7TPfaI_12depyler_core10ast_bridge14has_panic_risk
FNDA:0,_RNvNtCsj61Gn7TPfaI_12depyler_core10ast_bridge15convert_unaryop
FNDA:1,_RNvNtCsj61Gn7TPfaI_12depyler_core10ast_bridge16check_panic_free
FNDA:1,_RNvNtCsj61Gn7TPfaI_12depyler_core10ast_bridge16convert_function
FNDA:1,_RNvNtCsj61Gn7TPfaI_12depyler_core10ast_bridge16has_side_effects
FNDA:1,_RNvNtCsj61Gn7TPfaI_12depyler_core10ast_bridge17check_termination
FNDA:1,_RNvNtCsj61Gn7TPfaI_12depyler_core10ast_bridge18convert_parameters
FNDA:0,_RNvNtCsj61Gn7TPfaI_12depyler_core10ast_bridge18is_finite_iterator
FNDA:0,_RNvNtCsj61Gn7TPfaI_12depyler_core10ast_bridge19convert_import_from
FNDA:3,_RNvNtCsj61Gn7TPfaI_12depyler_core10ast_bridge19expr_has_panic_risk
FNDA:1,_RNvNtCsj61Gn7TPfaI_12depyler_core10ast_bridge19extract_return_type
FNDA:1,_RNvNtCsj61Gn7TPfaI_12depyler_core10ast_bridge20estimate_stack_depth
FNDA:0,_RNvNtCsj61Gn7TPfaI_12depyler_core10ast_bridge21extract_assign_target
FNDA:1,_RNvNtCsj61Gn7TPfaI_12depyler_core10ast_bridge25calculate_max_stack_depth
FNDA:1,_RNvNtCsj61Gn7TPfaI_12depyler_core10ast_bridge27analyze_function_properties
FNF:44
FNH:44
DA:5,16
DA:6,16
DA:7,16
DA:8,0
DA:10,16
DA:12,16
DA:13,16
DA:14,16
DA:16,35
DA:17,19
DA:18,16
DA:19,16
DA:21,1
DA:22,1
DA:24,2
DA:25,2
DA:27,0
DA:28,0
DA:29,0
DA:33,16
DA:34,16
DA:36,16
DA:37,16
DA:38,16
DA:39,16
DA:40,16
DA:42,16
DA:43,16
DA:44,16
DA:45,16
DA:46,16
DA:47,16
DA:48,16
DA:49,16
DA:50,16
DA:51,16
DA:53,16
DA:54,16
DA:56,17
DA:57,17
DA:58,17
DA:59,17
DA:61,0
DA:63,17
DA:66,16
DA:67,16
DA:69,16
DA:70,16
DA:71,14
DA:73,2
DA:75,16
DA:77,35
DA:78,35
DA:79,31
DA:80,31
DA:81,7
DA:82,7
DA:83,2
DA:84,1
DA:85,1
DA:87,4
DA:88,4
DA:89,4
DA:90,4
DA:91,2
DA:92,2
DA:94,2
DA:95,0
DA:96,0
DA:97,0
DA:98,0
DA:99,0
DA:101,0
DA:104,0
DA:107,2
DA:108,2
DA:109,2
DA:111,0
DA:114,0
DA:117,0
DA:119,35
DA:121,21
DA:122,21
DA:123,21
DA:125,26
DA:126,26
DA:127,4
DA:128,4
DA:129,0
DA:130,4
DA:131,4
DA:132,4
DA:133,4
DA:135,0
DA:136,0
DA:137,0
DA:138,0
DA:140,0
DA:142,0
DA:144,17
DA:145,17
DA:146,17
DA:148,0
DA:150,17
DA:152,3
DA:153,3
DA:154,3
DA:155,3
DA:156,2
DA:158,1
DA:160,3
DA:161,3
DA:162,3
DA:163,3
DA:164,3
DA:166,0
DA:167,0
DA:168,0
DA:169,0
DA:171,1
DA:172,1
DA:173,1
DA:174,1
DA:175,1
DA:177,1
DA:178,1
DA:179,1
DA:181,0
DA:183,26
DA:185,5
DA:186,5
DA:187,5
DA:188,0
DA:190,5
DA:192,71
DA:193,71
DA:194,24
DA:195,24
DA:196,19
DA:197,19
DA:198,19
DA:199,19
DA:201,0
DA:202,3
DA:203,0
DA:204,2
DA:205,0
DA:207,24
DA:209,23
DA:210,11
DA:211,11
DA:212,11
DA:213,11
DA:214,11
DA:216,2
DA:217,2
DA:218,2
DA:219,2
DA:221,4
DA:222,4
DA:223,4
DA:225,0
DA:227,4
DA:228,4
DA:229,4
DA:230,4
DA:231,4
DA:232,4
DA:234,1
DA:235,1
DA:236,1
DA:237,1
DA:239,2
DA:240,2
DA:241,2
DA:242,2
DA:243,2
DA:244,2
DA:245,2
DA:247,0
DA:248,0
DA:249,0
DA:250,0
DA:251,0
DA:252,0
DA:253,0
DA:255,0
DA:258,0
DA:260,1
DA:261,1
DA:262,1
DA:263,1
DA:264,1
DA:265,1
DA:266,1
DA:268,3
DA:269,3
DA:270,3
DA:271,0
DA:272,3
DA:273,3
DA:274,3
DA:275,3
DA:276,3
DA:278,0
DA:280,71
DA:282,11
DA:283,11
DA:284,8
DA:285,2
DA:286,1
DA:287,0
DA:288,0
DA:289,0
DA:290,0
DA:291,0
DA:292,0
DA:293,0
DA:294,0
DA:295,0
DA:296,0
DA:298,11
DA:300,2
DA:301,2
DA:302,0
DA:303,1
DA:304,1
DA:305,0
DA:307,2
DA:309,3
DA:310,3
DA:311,0
DA:312,0
DA:313,0
DA:314,1
DA:315,2
DA:316,0
DA:317,0
DA:318,0
DA:319,0
DA:321,3
DA:323,1
DA:324,1
DA:325,1
DA:326,1
DA:327,1
DA:328,1
DA:329,1
DA:330,0
DA:331,0
DA:332,0
DA:333,0
DA:335,1
DA:337,1
DA:338,1
DA:339,1
DA:340,1
DA:342,2
DA:343,2
DA:344,2
DA:345,2
DA:346,2
DA:347,2
DA:348,4
DA:349,4
DA:350,4
DA:351,0
DA:352,0
DA:353,0
DA:354,0
DA:356,4
DA:358,4
DA:359,2
DA:360,2
DA:361,2
DA:362,2
DA:364,16
DA:365,16
DA:366,16
DA:367,16
DA:368,16
DA:369,16
DA:370,16
DA:371,16
DA:373,16
DA:375,36
DA:376,21
DA:377,1
DA:378,20
DA:380,15
DA:381,16
DA:383,26
DA:384,1
DA:385,1
DA:387,1
DA:390,3
DA:391,3
DA:392,3
DA:393,3
DA:394,3
DA:395,3
DA:396,3
DA:397,3
DA:399,1
DA:400,1
DA:402,21
DA:404,26
DA:406,16
DA:408,35
DA:409,20
DA:410,0
DA:411,20
DA:412,20
DA:414,1
DA:415,1
DA:416,0
DA:417,19
DA:419,15
DA:420,16
DA:422,1
DA:423,1
DA:424,0
DA:425,0
DA:426,0
DA:428,1
DA:430,1
DA:432,16
DA:434,35
DA:435,20
DA:436,1
DA:437,19
DA:439,15
DA:440,16
DA:442,25
DA:443,16
DA:444,5
DA:445,16
DA:447,3
DA:448,3
DA:449,3
DA:450,3
DA:451,3
DA:452,3
DA:453,2
DA:454,2
DA:455,2
DA:457,0
DA:458,0
DA:460,1
DA:461,1
DA:463,0
DA:465,25
DA:467,57
DA:468,14
DA:469,1
DA:473,0
DA:474,14
DA:475,14
DA:477,4
DA:478,38
DA:480,57
DA:482,16
DA:483,16
DA:484,16
DA:485,16
DA:487,21
DA:488,26
DA:489,26
DA:491,3
DA:492,3
DA:493,3
DA:494,3
DA:495,3
DA:496,3
DA:497,3
DA:498,3
DA:499,3
DA:500,3
DA:502,1
DA:503,1
DA:505,22
DA:507,26
DA:508,26
DA:509,21
DA:517,11
DA:518,11
DA:519,11
DA:520,11
DA:521,11
DA:522,11
DA:523,11
DA:524,11
DA:525,11
DA:528,1
DA:529,1
DA:530,1
DA:531,1
DA:532,1
DA:533,1
DA:534,1
DA:535,1
DA:536,1
DA:537,1
DA:538,1
DA:539,1
DA:542,1
DA:543,1
DA:544,1
DA:545,1
DA:546,1
DA:547,1
DA:548,1
DA:549,1
DA:552,1
DA:553,1
DA:554,1
DA:555,1
DA:556,1
DA:557,1
DA:558,1
DA:559,1
DA:562,1
DA:563,1
DA:564,1
DA:565,1
DA:566,1
DA:567,1
DA:568,1
DA:569,1
DA:570,1
DA:571,1
DA:572,1
DA:573,1
DA:575,1
DA:576,1
DA:577,1
DA:578,1
DA:580,1
DA:581,1
DA:582,1
DA:584,0
DA:586,1
DA:589,1
DA:590,1
DA:591,1
DA:592,1
DA:593,1
DA:594,1
DA:595,1
DA:597,0
DA:599,1
DA:602,1
DA:603,1
DA:604,1
DA:605,1
DA:606,1
DA:607,1
DA:608,1
DA:609,1
DA:610,1
DA:611,1
DA:612,1
DA:613,1
DA:614,1
DA:615,1
DA:618,1
DA:619,1
DA:620,1
DA:621,1
DA:622,1
DA:623,1
DA:624,1
DA:625,1
DA:626,1
DA:627,1
DA:628,1
DA:629,1
DA:630,1
DA:631,1
DA:632,1
DA:633,1
DA:635,0
DA:637,1
DA:640,1
DA:641,1
DA:642,1
DA:643,1
DA:644,1
DA:645,1
DA:646,1
DA:647,1
DA:648,1
DA:649,1
DA:655,1
DA:656,1
DA:657,1
DA:658,1
DA:659,0
DA:666,1
DA:667,1
DA:668,1
DA:669,1
DA:670,0
DA:672,1
DA:675,1
DA:676,1
DA:677,1
DA:678,1
DA:679,1
DA:680,1
DA:681,1
DA:682,1
DA:683,1
DA:684,1
DA:685,1
DA:686,0
DA:688,1
DA:691,1
DA:692,1
DA:693,1
DA:694,1
DA:695,1
DA:696,1
DA:697,1
DA:698,1
DA:701,1
DA:702,1
DA:703,1
DA:705,1
DA:706,1
DA:712,1
DA:713,1
DA:720,0
DA:722,1
DA:725,1
DA:726,1
DA:727,1
DA:728,1
DA:729,1
DA:730,1
DA:731,1
DA:732,1
DA:733,1
DA:734,1
DA:735,1
DA:736,1
DA:738,0
DA:740,1
BRF:0
BRH:0
LF:558
LH:470
end_of_record
SF:/home/noah/src/depyler/crates/depyler-core/src/codegen.rs
FN:6,_RNvNtCs1ln2akHD1ak_12depyler_core7codegen13generate_rust
FN:405,_RNvNtNtCs1ln2akHD1ak_12depyler_core7codegen5testss_20test_type_conversion
FN:512,_RNvNtNtCs1ln2akHD1ak_12depyler_core7codegen5testss_22test_binary_operations
FN:419,_RNvNtNtCs1ln2akHD1ak_12depyler_core7codegen5testss_23test_literal_conversion
FN:487,_RNvNtNtCs1ln2akHD1ak_12depyler_core7codegen5testss_26test_assignment_generation
FN:454,_RNvNtNtCs1ln2akHD1ak_12depyler_core7codegen5testss_26test_needs_std_collections
FN:431,_RNvNtNtCs1ln2akHD1ak_12depyler_core7codegen5testss_28test_control_flow_generation
FN:499,_RNvNtNtCs1ln2akHD1ak_12depyler_core7codegen5testss_29test_function_call_generation
FN:380,_RNvNtNtCs1ln2akHD1ak_12depyler_core7codegen5testss_31test_simple_function_generation
FN:102,_RNCNvNtCs1ln2akHD1ak_12depyler_core7codegen24convert_function_to_rust0B5_
FN:37,_RNCNCNvNtCs1ln2akHD1ak_12depyler_core7codegen21needs_std_collections00B7_
FN:70,_RNCNvNtCs1ln2akHD1ak_12depyler_core7codegen17stmt_uses_hashmap0B5_
FN:36,_RNCNvNtCs1ln2akHD1ak_12depyler_core7codegen21needs_std_collections0B5_
FN:14,_RNvNtCs1ln2akHD1ak_12depyler_core7codegen11hir_to_rust
FN:43,_RNvNtCs1ln2akHD1ak_12depyler_core7codegen12uses_hashmap
FN:83,_RNvNtCs1ln2akHD1ak_12depyler_core7codegen17expr_uses_hashmap
FN:57,_RNvNtCs1ln2akHD1ak_12depyler_core7codegen17stmt_uses_hashmap
FN:126,_RNvNtCs1ln2akHD1ak_12depyler_core7codegen17type_to_rust_type
FN:363,_RNvNtCs1ln2akHD1ak_12depyler_core7codegen18prettify_rust_code
FN:241,_RNvNtCs1ln2akHD1ak_12depyler_core7codegen19expr_to_rust_tokens
FN:163,_RNvNtCs1ln2akHD1ak_12depyler_core7codegen19stmt_to_rust_tokens
FN:327,_RNvNtCs1ln2akHD1ak_12depyler_core7codegen20binop_to_rust_tokens
FN:35,_RNvNtCs1ln2akHD1ak_12depyler_core7codegen21needs_std_collections
FN:317,_RNvNtCs1ln2akHD1ak_12depyler_core7codegen22literal_to_rust_tokens
FN:354,_RNvNtCs1ln2akHD1ak_12depyler_core7codegen22unaryop_to_rust_tokens
FN:95,_RNvNtCs1ln2akHD1ak_12depyler_core7codegen24convert_function_to_rust
FN:53,_RNvNtCs1ln2akHD1ak_12depyler_core7codegen26function_body_uses_hashmap
FN:37,_RNCNCNvNtCsj61Gn7TPfaI_12depyler_core7codegen21needs_std_collections00B7_
FN:70,_RNCNvNtCsj61Gn7TPfaI_12depyler_core7codegen17stmt_uses_hashmap0B5_
FN:36,_RNCNvNtCsj61Gn7TPfaI_12depyler_core7codegen21needs_std_collections0B5_
FN:14,_RNvNtCsj61Gn7TPfaI_12depyler_core7codegen11hir_to_rust
FN:43,_RNvNtCsj61Gn7TPfaI_12depyler_core7codegen12uses_hashmap
FN:6,_RNvNtCsj61Gn7TPfaI_12depyler_core7codegen13generate_rust
FN:83,_RNvNtCsj61Gn7TPfaI_12depyler_core7codegen17expr_uses_hashmap
FN:57,_RNvNtCsj61Gn7TPfaI_12depyler_core7codegen17stmt_uses_hashmap
FN:126,_RNvNtCsj61Gn7TPfaI_12depyler_core7codegen17type_to_rust_type
FN:363,_RNvNtCsj61Gn7TPfaI_12depyler_core7codegen18prettify_rust_code
FN:241,_RNvNtCsj61Gn7TPfaI_12depyler_core7codegen19expr_to_rust_tokens
FN:163,_RNvNtCsj61Gn7TPfaI_12depyler_core7codegen19stmt_to_rust_tokens
FN:327,_RNvNtCsj61Gn7TPfaI_12depyler_core7codegen20binop_to_rust_tokens
FN:35,_RNvNtCsj61Gn7TPfaI_12depyler_core7codegen21needs_std_collections
FN:317,_RNvNtCsj61Gn7TPfaI_12depyler_core7codegen22literal_to_rust_tokens
FN:354,_RNvNtCsj61Gn7TPfaI_12depyler_core7codegen22unaryop_to_rust_tokens
FN:95,_RNvNtCsj61Gn7TPfaI_12depyler_core7codegen24convert_function_to_rust
FN:53,_RNvNtCsj61Gn7TPfaI_12depyler_core7codegen26function_body_uses_hashmap
FN:102,_RNCNvNtCsj61Gn7TPfaI_12depyler_core7codegen24convert_function_to_rust0B5_
FNDA:0,_RNvNtCs1ln2akHD1ak_12depyler_core7codegen13generate_rust
FNDA:1,_RNvNtNtCs1ln2akHD1ak_12depyler_core7codegen5testss_20test_type_conversion
FNDA:1,_RNvNtNtCs1ln2akHD1ak_12depyler_core7codegen5testss_22test_binary_operations
FNDA:1,_RNvNtNtCs1ln2akHD1ak_12depyler_core7codegen5testss_23test_literal_conversion
FNDA:1,_RNvNtNtCs1ln2akHD1ak_12depyler_core7codegen5testss_26test_assignment_generation
FNDA:1,_RNvNtNtCs1ln2akHD1ak_12depyler_core7codegen5testss_26test_needs_std_collections
FNDA:1,_RNvNtNtCs1ln2akHD1ak_12depyler_core7codegen5testss_28test_control_flow_generation
FNDA:1,_RNvNtNtCs1ln2akHD1ak_12depyler_core7codegen5testss_29test_function_call_generation
FNDA:1,_RNvNtNtCs1ln2akHD1ak_12depyler_core7codegen5testss_31test_simple_function_generation
FNDA:2,_RNCNvNtCs1ln2akHD1ak_12depyler_core7codegen24convert_function_to_rust0B5_
FNDA:4,_RNCNCNvNtCs1ln2akHD1ak_12depyler_core7codegen21needs_std_collections00B7_
FNDA:0,_RNCNvNtCs1ln2akHD1ak_12depyler_core7codegen17stmt_uses_hashmap0B5_
FNDA:3,_RNCNvNtCs1ln2akHD1ak_12depyler_core7codegen21needs_std_collections0B5_
FNDA:1,_RNvNtCs1ln2akHD1ak_12depyler_core7codegen11hir_to_rust
FNDA:6,_RNvNtCs1ln2akHD1ak_12depyler_core7codegen12uses_hashmap
FNDA:3,_RNvNtCs1ln2akHD1ak_12depyler_core7codegen17expr_uses_hashmap
FNDA:1,_RNvNtCs1ln2akHD1ak_12depyler_core7codegen17stmt_uses_hashmap
FNDA:9,_RNvNtCs1ln2akHD1ak_12depyler_core7codegen17type_to_rust_type
FNDA:1,_RNvNtCs1ln2akHD1ak_12depyler_core7codegen18prettify_rust_code
FNDA:12,_RNvNtCs1ln2akHD1ak_12depyler_core7codegen19expr_to_rust_tokens
FNDA:5,_RNvNtCs1ln2akHD1ak_12depyler_core7codegen19stmt_to_rust_tokens
FNDA:7,_RNvNtCs1ln2akHD1ak_12depyler_core7codegen20binop_to_rust_tokens
FNDA:3,_RNvNtCs1ln2akHD1ak_12depyler_core7codegen21needs_std_collections
FNDA:8,_RNvNtCs1ln2akHD1ak_12depyler_core7codegen22literal_to_rust_tokens
FNDA:0,_RNvNtCs1ln2akHD1ak_12depyler_core7codegen22unaryop_to_rust_tokens
FNDA:1,_RNvNtCs1ln2akHD1ak_12depyler_core7codegen24convert_function_to_rust
FNDA:2,_RNvNtCs1ln2akHD1ak_12depyler_core7codegen26function_body_uses_hashmap
FNDA:0,_RNCNCNvNtCsj61Gn7TPfaI_12depyler_core7codegen21needs_std_collections00B7_
FNDA:0,_RNCNvNtCsj61Gn7TPfaI_12depyler_core7codegen17stmt_uses_hashmap0B5_
FNDA:0,_RNCNvNtCsj61Gn7TPfaI_12depyler_core7codegen21needs_std_collections0B5_
FNDA:0,_RNvNtCsj61Gn7TPfaI_12depyler_core7codegen11hir_to_rust
FNDA:0,_RNvNtCsj61Gn7TPfaI_12depyler_core7codegen12uses_hashmap
FNDA:0,_RNvNtCsj61Gn7TPfaI_12depyler_core7codegen13generate_rust
FNDA:0,_RNvNtCsj61Gn7TPfaI_12depyler_core7codegen17expr_uses_hashmap
FNDA:0,_RNvNtCsj61Gn7TPfaI_12depyler_core7codegen17stmt_uses_hashmap
FNDA:0,_RNvNtCsj61Gn7TPfaI_12depyler_core7codegen17type_to_rust_type
FNDA:0,_RNvNtCsj61Gn7TPfaI_12depyler_core7codegen18prettify_rust_code
FNDA:0,_RNvNtCsj61Gn7TPfaI_12depyler_core7codegen19expr_to_rust_tokens
FNDA:0,_RNvNtCsj61Gn7TPfaI_12depyler_core7codegen19stmt_to_rust_tokens
FNDA:0,_RNvNtCsj61Gn7TPfaI_12depyler_core7codegen20binop_to_rust_tokens
FNDA:0,_RNvNtCsj61Gn7TPfaI_12depyler_core7codegen21needs_std_collections
FNDA:0,_RNvNtCsj61Gn7TPfaI_12depyler_core7codegen22literal_to_rust_tokens
FNDA:0,_RNvNtCsj61Gn7TPfaI_12depyler_core7codegen22unaryop_to_rust_tokens
FNDA:0,_RNvNtCsj61Gn7TPfaI_12depyler_core7codegen24convert_function_to_rust
FNDA:0,_RNvNtCsj61Gn7TPfaI_12depyler_core7codegen26function_body_uses_hashmap
FNDA:0,_RNCNvNtCsj61Gn7TPfaI_12depyler_core7codegen24convert_function_to_rust0B5_
FNF:27
FNH:24
DA:6,0
DA:7,0
DA:8,0
DA:9,0
DA:10,0
DA:11,0
DA:12,0
DA:14,1
DA:15,1
DA:16,1
DA:17,1
DA:18,1
DA:19,0
DA:20,1
DA:23,2
DA:24,1
DA:25,1
DA:28,1
DA:29,1
DA:30,1
DA:32,1
DA:33,1
DA:35,3
DA:36,3
DA:37,4
DA:38,2
DA:39,2
DA:40,3
DA:41,3
DA:43,6
DA:44,6
DA:45,1
DA:46,0
DA:47,0
DA:48,0
DA:49,5
DA:51,6
DA:53,2
DA:54,2
DA:55,2
DA:57,1
DA:58,1
DA:59,0
DA:60,1
DA:62,0
DA:63,0
DA:64,0
DA:65,0
DA:66,0
DA:67,0
DA:68,0
DA:69,0
DA:70,0
DA:72,0
DA:73,0
DA:75,0
DA:76,0
DA:78,0
DA:79,0
DA:81,1
DA:83,3
DA:84,3
DA:85,0
DA:86,1
DA:87,0
DA:88,0
DA:89,0
DA:90,0
DA:91,2
DA:93,3
DA:95,1
DA:96,1
DA:97,1
DA:98,1
DA:99,1
DA:100,1
DA:101,1
DA:102,2
DA:103,2
DA:104,2
DA:105,2
DA:106,2
DA:107,1
DA:108,1
DA:109,1
DA:110,1
DA:113,1
DA:114,1
DA:115,1
DA:116,1
DA:117,1
DA:119,1
DA:120,1
DA:121,1
DA:122,1
DA:123,1
DA:124,1
DA:126,9
DA:127,9
DA:128,5
DA:129,0
DA:130,2
DA:131,0
DA:132,0
DA:133,1
DA:134,1
DA:135,1
DA:137,0
DA:138,0
DA:139,0
DA:140,0
DA:142,0
DA:143,0
DA:144,0
DA:146,1
DA:147,1
DA:148,1
DA:150,0
DA:151,0
DA:152,0
DA:153,0
DA:155,0
DA:156,0
DA:157,0
DA:159,0
DA:161,9
DA:163,5
DA:164,5
DA:165,1
DA:166,1
DA:167,1
DA:168,1
DA:170,3
DA:171,3
DA:172,3
DA:173,3
DA:175,0
DA:179,1
DA:180,1
DA:181,1
DA:183,1
DA:184,1
DA:185,1
DA:186,1
DA:187,1
DA:189,1
DA:190,1
DA:191,1
DA:192,1
DA:193,1
DA:194,1
DA:195,1
DA:196,1
DA:197,1
DA:198,1
DA:199,1
DA:200,1
DA:202,0
DA:203,0
DA:204,0
DA:205,0
DA:206,0
DA:209,0
DA:210,0
DA:211,0
DA:212,0
DA:213,0
DA:214,0
DA:215,0
DA:216,0
DA:217,0
DA:218,0
DA:219,0
DA:221,0
DA:222,0
DA:223,0
DA:224,0
DA:225,0
DA:226,0
DA:227,0
DA:228,0
DA:229,0
DA:230,0
DA:231,0
DA:232,0
DA:234,0
DA:235,0
DA:236,0
DA:239,5
DA:241,12
DA:242,12
DA:243,5
DA:244,3
DA:245,3
DA:246,3
DA:248,2
DA:249,2
DA:250,2
DA:251,2
DA:252,2
DA:254,0
DA:255,0
DA:256,0
DA:257,0
DA:259,1
DA:260,1
DA:261,1
DA:262,1
DA:263,1
DA:264,1
DA:265,1
DA:267,0
DA:268,0
DA:269,0
DA:270,0
DA:272,1
DA:273,1
DA:274,1
DA:275,1
DA:276,1
DA:277,1
DA:279,0
DA:280,0
DA:281,0
DA:282,0
DA:283,0
DA:284,0
DA:286,0
DA:287,0
DA:288,0
DA:289,0
DA:290,0
DA:291,0
DA:292,0
DA:294,0
DA:295,0
DA:296,0
DA:297,0
DA:298,0
DA:299,0
DA:301,0
DA:302,0
DA:303,0
DA:304,0
DA:306,0
DA:307,0
DA:308,0
DA:309,0
DA:311,0
DA:315,12
DA:317,8
DA:318,8
DA:319,4
DA:320,0
DA:321,3
DA:322,1
DA:323,0
DA:325,8
DA:327,7
DA:328,7
DA:329,2
DA:330,1
DA:331,1
DA:332,0
DA:333,0
DA:334,0
DA:335,0
DA:336,1
DA:337,0
DA:338,1
DA:339,0
DA:340,1
DA:341,0
DA:342,0
DA:343,0
DA:344,0
DA:345,0
DA:346,0
DA:347,0
DA:348,0
DA:349,0
DA:350,0
DA:352,7
DA:354,0
DA:355,0
DA:356,0
DA:357,0
DA:358,0
DA:359,0
DA:361,0
DA:363,1
DA:364,1
DA:365,1
DA:366,1
DA:367,1
DA:368,1
DA:369,1
DA:370,1
DA:371,1
DA:372,1
DA:373,1
DA:380,1
DA:381,1
DA:382,1
DA:383,1
DA:384,1
DA:385,1
DA:386,1
DA:387,1
DA:388,1
DA:389,1
DA:390,1
DA:391,1
DA:392,1
DA:393,1
DA:394,1
DA:395,1
DA:396,1
DA:397,1
DA:398,1
DA:399,1
DA:400,1
DA:401,1
DA:402,1
DA:405,1
DA:406,1
DA:407,1
DA:408,1
DA:409,1
DA:410,1
DA:411,1
DA:412,1
DA:413,1
DA:414,1
DA:415,1
DA:416,1
DA:419,1
DA:420,1
DA:421,1
DA:423,1
DA:424,1
DA:426,1
DA:427,1
DA:428,1
DA:431,1
DA:432,1
DA:433,1
DA:434,1
DA:435,1
DA:436,1
DA:437,1
DA:438,1
DA:439,1
DA:440,1
DA:441,1
DA:442,1
DA:443,1
DA:444,1
DA:445,1
DA:446,1
DA:447,1
DA:448,1
DA:449,1
DA:450,1
DA:451,1
DA:454,1
DA:455,1
DA:456,1
DA:457,1
DA:458,1
DA:459,1
DA:460,1
DA:461,1
DA:462,1
DA:463,1
DA:464,1
DA:465,1
DA:466,1
DA:467,1
DA:468,1
DA:469,1
DA:470,1
DA:472,1
DA:473,1
DA:474,1
DA:475,1
DA:476,1
DA:477,1
DA:478,1
DA:479,1
DA:480,1
DA:481,1
DA:482,1
DA:483,1
DA:484,1
DA:487,1
DA:488,1
DA:489,1
DA:490,1
DA:491,1
DA:492,1
DA:493,1
DA:494,1
DA:495,1
DA:496,1
DA:499,1
DA:500,1
DA:501,1
DA:502,1
DA:503,1
DA:504,1
DA:505,1
DA:506,1
DA:507,1
DA:508,1
DA:509,1
DA:512,1
DA:513,1
DA:514,1
DA:515,1
DA:516,1
DA:517,1
DA:518,1
DA:519,1
DA:521,6
DA:522,5
DA:523,5
DA:525,1
BRF:0
BRH:0
LF:434
LH:290
end_of_record
SF:/home/noah/src/depyler/crates/depyler-core/src/direct_rules.rs
FN:449,_RNvNtNtCs1ln2akHD1ak_12depyler_core12direct_rules5tests23create_test_type_mapper
FN:679,_RNvNtNtCs1ln2akHD1ak_12depyler_core12direct_rules5testss_16test_apply_rules
FN:632,_RNvNtNtCs1ln2akHD1ak_12depyler_core12direct_rules5testss_20test_convert_literal
FN:556,_RNvNtNtCs1ln2akHD1ak_12depyler_core12direct_rules5testss_24test_expr_converter_dict
FN:540,_RNvNtNtCs1ln2akHD1ak_12depyler_core12direct_rules5testss_24test_expr_converter_list
FN:571,_RNvNtNtCs1ln2akHD1ak_12depyler_core12direct_rules5testss_25test_expr_converter_tuple
FN:614,_RNvNtNtCs1ln2akHD1ak_12depyler_core12direct_rules5testss_26test_convert_binop_bitwise
FN:607,_RNvNtNtCs1ln2akHD1ak_12depyler_core12direct_rules5testss_26test_convert_binop_logical
FN:478,_RNvNtNtCs1ln2akHD1ak_12depyler_core12direct_rules5testss_26test_expr_converter_binary
FN:454,_RNvNtNtCs1ln2akHD1ak_12depyler_core12direct_rules5testss_27test_expr_converter_literal
FN:493,_RNvNtNtCs1ln2akHD1ak_12depyler_core12direct_rules5testss_28test_expr_converter_len_call
FN:466,_RNvNtNtCs1ln2akHD1ak_12depyler_core12direct_rules5testss_28test_expr_converter_variable
FN:586,_RNvNtNtCs1ln2akHD1ak_12depyler_core12direct_rules5testss_29test_convert_binop_arithmetic
FN:596,_RNvNtNtCs1ln2akHD1ak_12depyler_core12direct_rules5testss_29test_convert_binop_comparison
FN:624,_RNvNtNtCs1ln2akHD1ak_12depyler_core12direct_rules5testss_30test_convert_binop_unsupported
FN:523,_RNvNtNtCs1ln2akHD1ak_12depyler_core12direct_rules5testss_39test_expr_converter_range_call_two_args
FN:655,_RNvNtNtCs1ln2akHD1ak_12depyler_core12direct_rules5testss_40test_convert_function_with_documentation
FN:508,_RNvNtNtCs1ln2akHD1ak_12depyler_core12direct_rules5testss_41test_expr_converter_range_call_single_arg
FN:291,_RNvMNtCs1ln2akHD1ak_12depyler_core12direct_rulesNtB2_13ExprConverter12convert_call
FN:354,_RNvMNtCs1ln2akHD1ak_12depyler_core12direct_rulesNtB2_13ExprConverter12convert_dict
FN:346,_RNvMNtCs1ln2akHD1ak_12depyler_core12direct_rulesNtB2_13ExprConverter12convert_list
FN:336,_RNvMNtCs1ln2akHD1ak_12depyler_core12direct_rulesNtB2_13ExprConverter13convert_index
FN:373,_RNvMNtCs1ln2akHD1ak_12depyler_core12direct_rulesNtB2_13ExprConverter13convert_tuple
FN:281,_RNvMNtCs1ln2akHD1ak_12depyler_core12direct_rulesNtB2_13ExprConverter13convert_unary
FN:274,_RNvMNtCs1ln2akHD1ak_12depyler_core12direct_rulesNtB2_13ExprConverter14convert_binary
FN:265,_RNvMNtCs1ln2akHD1ak_12depyler_core12direct_rulesNtB2_13ExprConverter15convert_literal
FN:304,_RNvMNtCs1ln2akHD1ak_12depyler_core12direct_rulesNtB2_13ExprConverter16convert_len_call
FN:269,_RNvMNtCs1ln2akHD1ak_12depyler_core12direct_rulesNtB2_13ExprConverter16convert_variable
FN:312,_RNvMNtCs1ln2akHD1ak_12depyler_core12direct_rulesNtB2_13ExprConverter18convert_range_call
FN:331,_RNvMNtCs1ln2akHD1ak_12depyler_core12direct_rulesNtB2_13ExprConverter20convert_generic_call
FN:246,_RNvMNtCs1ln2akHD1ak_12depyler_core12direct_rulesNtB2_13ExprConverter3new
FN:250,_RNvMNtCs1ln2akHD1ak_12depyler_core12direct_rulesNtB2_13ExprConverter7convert
FN:6,_RNvNtCs1ln2akHD1ak_12depyler_core12direct_rules11apply_rules
FN:132,_RNvNtCs1ln2akHD1ak_12depyler_core12direct_rules12convert_body
FN:234,_RNvNtCs1ln2akHD1ak_12depyler_core12direct_rules12convert_expr
FN:139,_RNvNtCs1ln2akHD1ak_12depyler_core12direct_rules12convert_stmt
FN:405,_RNvNtCs1ln2akHD1ak_12depyler_core12direct_rules13convert_binop
FN:225,_RNvNtCs1ln2akHD1ak_12depyler_core12direct_rules13convert_block
FN:382,_RNvNtCs1ln2akHD1ak_12depyler_core12direct_rules15convert_literal
FN:27,_RNvNtCs1ln2akHD1ak_12depyler_core12direct_rules16convert_function
FN:107,_RNvNtCs1ln2akHD1ak_12depyler_core12direct_rules16rust_type_to_syn
FN:294,_RNCNvMNtCs1ln2akHD1ak_12depyler_core12direct_rulesNtB4_13ExprConverter12convert_call0B6_
FN:357,_RNCNvMNtCs1ln2akHD1ak_12depyler_core12direct_rulesNtB4_13ExprConverter12convert_dict0B6_
FN:349,_RNCNvMNtCs1ln2akHD1ak_12depyler_core12direct_rulesNtB4_13ExprConverter12convert_list0B6_
FN:376,_RNCNvMNtCs1ln2akHD1ak_12depyler_core12direct_rulesNtB4_13ExprConverter13convert_tuple0B6_
FN:135,_RNCNvNtCs1ln2akHD1ak_12depyler_core12direct_rules12convert_body0B5_
FN:294,_RNCNvMNtCsj61Gn7TPfaI_12depyler_core12direct_rulesNtB4_13ExprConverter12convert_call0B6_
FN:357,_RNCNvMNtCsj61Gn7TPfaI_12depyler_core12direct_rulesNtB4_13ExprConverter12convert_dict0B6_
FN:349,_RNCNvMNtCsj61Gn7TPfaI_12depyler_core12direct_rulesNtB4_13ExprConverter12convert_list0B6_
FN:376,_RNCNvMNtCsj61Gn7TPfaI_12depyler_core12direct_rulesNtB4_13ExprConverter13convert_tuple0B6_
FN:135,_RNCNvNtCsj61Gn7TPfaI_12depyler_core12direct_rules12convert_body0B5_
FN:291,_RNvMNtCsj61Gn7TPfaI_12depyler_core12direct_rulesNtB2_13ExprConverter12convert_call
FN:354,_RNvMNtCsj61Gn7TPfaI_12depyler_core12direct_rulesNtB2_13ExprConverter12convert_dict
FN:346,_RNvMNtCsj61Gn7TPfaI_12depyler_core12direct_rulesNtB2_13ExprConverter12convert_list
FN:336,_RNvMNtCsj61Gn7TPfaI_12depyler_core12direct_rulesNtB2_13ExprConverter13convert_index
FN:373,_RNvMNtCsj61Gn7TPfaI_12depyler_core12direct_rulesNtB2_13ExprConverter13convert_tuple
FN:281,_RNvMNtCsj61Gn7TPfaI_12depyler_core12direct_rulesNtB2_13ExprConverter13convert_unary
FN:274,_RNvMNtCsj61Gn7TPfaI_12depyler_core12direct_rulesNtB2_13ExprConverter14convert_binary
FN:265,_RNvMNtCsj61Gn7TPfaI_12depyler_core12direct_rulesNtB2_13ExprConverter15convert_literal
FN:304,_RNvMNtCsj61Gn7TPfaI_12depyler_core12direct_rulesNtB2_13ExprConverter16convert_len_call
FN:269,_RNvMNtCsj61Gn7TPfaI_12depyler_core12direct_rulesNtB2_13ExprConverter16convert_variable
FN:312,_RNvMNtCsj61Gn7TPfaI_12depyler_core12direct_rulesNtB2_13ExprConverter18convert_range_call
FN:331,_RNvMNtCsj61Gn7TPfaI_12depyler_core12direct_rulesNtB2_13ExprConverter20convert_generic_call
FN:246,_RNvMNtCsj61Gn7TPfaI_12depyler_core12direct_rulesNtB2_13ExprConverter3new
FN:250,_RNvMNtCsj61Gn7TPfaI_12depyler_core12direct_rulesNtB2_13ExprConverter7convert
FN:6,_RNvNtCsj61Gn7TPfaI_12depyler_core12direct_rules11apply_rules
FN:132,_RNvNtCsj61Gn7TPfaI_12depyler_core12direct_rules12convert_body
FN:234,_RNvNtCsj61Gn7TPfaI_12depyler_core12direct_rules12convert_expr
FN:139,_RNvNtCsj61Gn7TPfaI_12depyler_core12direct_rules12convert_stmt
FN:405,_RNvNtCsj61Gn7TPfaI_12depyler_core12direct_rules13convert_binop
FN:225,_RNvNtCsj61Gn7TPfaI_12depyler_core12direct_rules13convert_block
FN:382,_RNvNtCsj61Gn7TPfaI_12depyler_core12direct_rules15convert_literal
FN:27,_RNvNtCsj61Gn7TPfaI_12depyler_core12direct_rules16convert_function
FN:107,_RNvNtCsj61Gn7TPfaI_12depyler_core12direct_rules16rust_type_to_syn
FNDA:11,_RNvNtNtCs1ln2akHD1ak_12depyler_core12direct_rules5tests23create_test_type_mapper
FNDA:1,_RNvNtNtCs1ln2akHD1ak_12depyler_core12direct_rules5testss_16test_apply_rules
FNDA:1,_RNvNtNtCs1ln2akHD1ak_12depyler_core12direct_rules5testss_20test_convert_literal
FNDA:1,_RNvNtNtCs1ln2akHD1ak_12depyler_core12direct_rules5testss_24test_expr_converter_dict
FNDA:1,_RNvNtNtCs1ln2akHD1ak_12depyler_core12direct_rules5testss_24test_expr_converter_list
FNDA:1,_RNvNtNtCs1ln2akHD1ak_12depyler_core12direct_rules5testss_25test_expr_converter_tuple
FNDA:1,_RNvNtNtCs1ln2akHD1ak_12depyler_core12direct_rules5testss_26test_convert_binop_bitwise
FNDA:1,_RNvNtNtCs1ln2akHD1ak_12depyler_core12direct_rules5testss_26test_convert_binop_logical
FNDA:1,_RNvNtNtCs1ln2akHD1ak_12depyler_core12direct_rules5testss_26test_expr_converter_binary
FNDA:1,_RNvNtNtCs1ln2akHD1ak_12depyler_core12direct_rules5testss_27test_expr_converter_literal
FNDA:1,_RNvNtNtCs1ln2akHD1ak_12depyler_core12direct_rules5testss_28test_expr_converter_len_call
FNDA:1,_RNvNtNtCs1ln2akHD1ak_12depyler_core12direct_rules5testss_28test_expr_converter_variable
FNDA:1,_RNvNtNtCs1ln2akHD1ak_12depyler_core12direct_rules5testss_29test_convert_binop_arithmetic
FNDA:1,_RNvNtNtCs1ln2akHD1ak_12depyler_core12direct_rules5testss_29test_convert_binop_comparison
FNDA:1,_RNvNtNtCs1ln2akHD1ak_12depyler_core12direct_rules5testss_30test_convert_binop_unsupported
FNDA:1,_RNvNtNtCs1ln2akHD1ak_12depyler_core12direct_rules5testss_39test_expr_converter_range_call_two_args
FNDA:1,_RNvNtNtCs1ln2akHD1ak_12depyler_core12direct_rules5testss_40test_convert_function_with_documentation
FNDA:1,_RNvNtNtCs1ln2akHD1ak_12depyler_core12direct_rules5testss_41test_expr_converter_range_call_single_arg
FNDA:3,_RNvMNtCs1ln2akHD1ak_12depyler_core12direct_rulesNtB2_13ExprConverter12convert_call
FNDA:1,_RNvMNtCs1ln2akHD1ak_12depyler_core12direct_rulesNtB2_13ExprConverter12convert_dict
FNDA:1,_RNvMNtCs1ln2akHD1ak_12depyler_core12direct_rulesNtB2_13ExprConverter12convert_list
FNDA:0,_RNvMNtCs1ln2akHD1ak_12depyler_core12direct_rulesNtB2_13ExprConverter13convert_index
FNDA:1,_RNvMNtCs1ln2akHD1ak_12depyler_core12direct_rulesNtB2_13ExprConverter13convert_tuple
FNDA:0,_RNvMNtCs1ln2akHD1ak_12depyler_core12direct_rulesNtB2_13ExprConverter13convert_unary
FNDA:2,_RNvMNtCs1ln2akHD1ak_12depyler_core12direct_rulesNtB2_13ExprConverter14convert_binary
FNDA:13,_RNvMNtCs1ln2akHD1ak_12depyler_core12direct_rulesNtB2_13ExprConverter15convert_literal
FNDA:1,_RNvMNtCs1ln2akHD1ak_12depyler_core12direct_rulesNtB2_13ExprConverter16convert_len_call
FNDA:5,_RNvMNtCs1ln2akHD1ak_12depyler_core12direct_rulesNtB2_13ExprConverter16convert_variable
FNDA:2,_RNvMNtCs1ln2akHD1ak_12depyler_core12direct_rulesNtB2_13ExprConverter18convert_range_call
FNDA:0,_RNvMNtCs1ln2akHD1ak_12depyler_core12direct_rulesNtB2_13ExprConverter20convert_generic_call
FNDA:11,_RNvMNtCs1ln2akHD1ak_12depyler_core12direct_rulesNtB2_13ExprConverter3new
FNDA:26,_RNvMNtCs1ln2akHD1ak_12depyler_core12direct_rulesNtB2_13ExprConverter7convert
FNDA:1,_RNvNtCs1ln2akHD1ak_12depyler_core12direct_rules11apply_rules
FNDA:2,_RNvNtCs1ln2akHD1ak_12depyler_core12direct_rules12convert_body
FNDA:2,_RNvNtCs1ln2akHD1ak_12depyler_core12direct_rules12convert_expr
FNDA:2,_RNvNtCs1ln2akHD1ak_12depyler_core12direct_rules12convert_stmt
FNDA:23,_RNvNtCs1ln2akHD1ak_12depyler_core12direct_rules13convert_binop
FNDA:0,_RNvNtCs1ln2akHD1ak_12depyler_core12direct_rules13convert_block
FNDA:18,_RNvNtCs1ln2akHD1ak_12depyler_core12direct_rules15convert_literal
FNDA:2,_RNvNtCs1ln2akHD1ak_12depyler_core12direct_rules16convert_function
FNDA:5,_RNvNtCs1ln2akHD1ak_12depyler_core12direct_rules16rust_type_to_syn
FNDA:4,_RNCNvMNtCs1ln2akHD1ak_12depyler_core12direct_rulesNtB4_13ExprConverter12convert_call0B6_
FNDA:1,_RNCNvMNtCs1ln2akHD1ak_12depyler_core12direct_rulesNtB4_13ExprConverter12convert_dict0B6_
FNDA:3,_RNCNvMNtCs1ln2akHD1ak_12depyler_core12direct_rulesNtB4_13ExprConverter12convert_list0B6_
FNDA:2,_RNCNvMNtCs1ln2akHD1ak_12depyler_core12direct_rulesNtB4_13ExprConverter13convert_tuple0B6_
FNDA:2,_RNCNvNtCs1ln2akHD1ak_12depyler_core12direct_rules12convert_body0B5_
FNDA:0,_RNCNvMNtCsj61Gn7TPfaI_12depyler_core12direct_rulesNtB4_13ExprConverter12convert_call0B6_
FNDA:0,_RNCNvMNtCsj61Gn7TPfaI_12depyler_core12direct_rulesNtB4_13ExprConverter12convert_dict0B6_
FNDA:0,_RNCNvMNtCsj61Gn7TPfaI_12depyler_core12direct_rulesNtB4_13ExprConverter12convert_list0B6_
FNDA:0,_RNCNvMNtCsj61Gn7TPfaI_12depyler_core12direct_rulesNtB4_13ExprConverter13convert_tuple0B6_
FNDA:0,_RNCNvNtCsj61Gn7TPfaI_12depyler_core12direct_rules12convert_body0B5_
FNDA:0,_RNvMNtCsj61Gn7TPfaI_12depyler_core12direct_rulesNtB2_13ExprConverter12convert_call
FNDA:0,_RNvMNtCsj61Gn7TPfaI_12depyler_core12direct_rulesNtB2_13ExprConverter12convert_dict
FNDA:0,_RNvMNtCsj61Gn7TPfaI_12depyler_core12direct_rulesNtB2_13ExprConverter12convert_list
FNDA:0,_RNvMNtCsj61Gn7TPfaI_12depyler_core12direct_rulesNtB2_13ExprConverter13convert_index
FNDA:0,_RNvMNtCsj61Gn7TPfaI_12depyler_core12direct_rulesNtB2_13ExprConverter13convert_tuple
FNDA:0,_RNvMNtCsj61Gn7TPfaI_12depyler_core12direct_rulesNtB2_13ExprConverter13convert_unary
FNDA:0,_RNvMNtCsj61Gn7TPfaI_12depyler_core12direct_rulesNtB2_13ExprConverter14convert_binary
FNDA:0,_RNvMNtCsj61Gn7TPfaI_12depyler_core12direct_rulesNtB2_13ExprConverter15convert_literal
FNDA:0,_RNvMNtCsj61Gn7TPfaI_12depyler_core12direct_rulesNtB2_13ExprConverter16convert_len_call
FNDA:0,_RNvMNtCsj61Gn7TPfaI_12depyler_core12direct_rulesNtB2_13ExprConverter16convert_variable
FNDA:0,_RNvMNtCsj61Gn7TPfaI_12depyler_core12direct_rulesNtB2_13ExprConverter18convert_range_call
FNDA:0,_RNvMNtCsj61Gn7TPfaI_12depyler_core12direct_rulesNtB2_13ExprConverter20convert_generic_call
FNDA:0,_RNvMNtCsj61Gn7TPfaI_12depyler_core12direct_rulesNtB2_13ExprConverter3new
FNDA:0,_RNvMNtCsj61Gn7TPfaI_12depyler_core12direct_rulesNtB2_13ExprConverter7convert
FNDA:0,_RNvNtCsj61Gn7TPfaI_12depyler_core12direct_rules11apply_rules
FNDA:0,_RNvNtCsj61Gn7TPfaI_12depyler_core12direct_rules12convert_body
FNDA:0,_RNvNtCsj61Gn7TPfaI_12depyler_core12direct_rules12convert_expr
FNDA:0,_RNvNtCsj61Gn7TPfaI_12depyler_core12direct_rules12convert_stmt
FNDA:0,_RNvNtCsj61Gn7TPfaI_12depyler_core12direct_rules13convert_binop
FNDA:0,_RNvNtCsj61Gn7TPfaI_12depyler_core12direct_rules13convert_block
FNDA:0,_RNvNtCsj61Gn7TPfaI_12depyler_core12direct_rules15convert_literal
FNDA:0,_RNvNtCsj61Gn7TPfaI_12depyler_core12direct_rules16convert_function
FNDA:0,_RNvNtCsj61Gn7TPfaI_12depyler_core12direct_rules16rust_type_to_syn
FNF:46
FNH:42
DA:6,1
DA:7,1
DA:8,1
DA:9,1
DA:10,1
DA:11,1
DA:12,1
DA:15,2
DA:16,1
DA:17,1
DA:20,1
DA:21,1
DA:22,1
DA:23,1
DA:24,1
DA:25,1
DA:27,2
DA:28,2
DA:29,2
DA:30,2
DA:31,2
DA:32,5
DA:33,3
DA:34,3
DA:35,3
DA:36,3
DA:37,3
DA:38,3
DA:39,3
DA:40,3
DA:41,3
DA:44,3
DA:45,0
DA:47,3
DA:50,3
DA:51,3
DA:52,3
DA:53,3
DA:54,3
DA:55,3
DA:59,2
DA:60,2
DA:61,0
DA:63,2
DA:64,2
DA:68,2
DA:69,2
DA:70,2
DA:71,2
DA:72,2
DA:73,2
DA:74,2
DA:75,2
DA:76,2
DA:77,1
DA:78,1
DA:79,1
DA:80,1
DA:81,2
DA:82,1
DA:83,1
DA:84,1
DA:85,1
DA:87,2
DA:88,2
DA:89,2
DA:90,2
DA:91,2
DA:92,2
DA:93,2
DA:94,2
DA:95,2
DA:96,2
DA:97,2
DA:98,2
DA:99,2
DA:100,2
DA:101,2
DA:102,2
DA:103,2
DA:104,2
DA:105,2
DA:107,5
DA:108,5
DA:109,5
DA:110,5
DA:111,5
DA:113,0
DA:114,0
DA:115,0
DA:116,0
DA:118,0
DA:119,0
DA:120,0
DA:121,0
DA:123,0
DA:124,0
DA:125,0
DA:127,0
DA:128,0
DA:130,5
DA:132,2
DA:133,2
DA:134,2
DA:135,2
DA:136,2
DA:137,2
DA:139,2
DA:140,2
DA:141,0
DA:142,0
DA:143,0
DA:146,0
DA:147,0
DA:148,0
DA:149,0
DA:150,0
DA:151,0
DA:152,0
DA:153,0
DA:154,0
DA:155,0
DA:156,0
DA:157,0
DA:158,0
DA:159,0
DA:160,0
DA:161,0
DA:162,0
DA:163,0
DA:165,2
DA:166,2
DA:167,2
DA:169,0
DA:171,2
DA:172,2
DA:173,2
DA:174,2
DA:177,0
DA:178,0
DA:179,0
DA:181,0
DA:182,0
DA:184,0
DA:185,0
DA:186,0
DA:187,0
DA:188,0
DA:190,0
DA:191,0
DA:192,0
DA:195,0
DA:197,0
DA:198,0
DA:199,0
DA:201,0
DA:202,0
DA:203,0
DA:204,0
DA:205,0
DA:207,0
DA:208,0
DA:209,0
DA:210,0
DA:212,0
DA:213,0
DA:214,0
DA:215,0
DA:216,0
DA:218,0
DA:219,0
DA:220,0
DA:223,2
DA:225,0
DA:226,0
DA:227,0
DA:228,0
DA:229,0
DA:230,0
DA:231,0
DA:234,2
DA:235,2
DA:236,2
DA:237,2
DA:246,11
DA:247,11
DA:248,11
DA:250,26
DA:251,26
DA:252,13
DA:253,5
DA:254,2
DA:255,0
DA:256,3
DA:257,0
DA:258,1
DA:259,1
DA:260,1
DA:261,0
DA:263,26
DA:265,13
DA:266,13
DA:267,13
DA:269,5
DA:270,5
DA:271,5
DA:272,5
DA:274,2
DA:275,2
DA:276,2
DA:277,2
DA:278,2
DA:279,2
DA:281,0
DA:282,0
DA:283,0
DA:284,0
DA:285,0
DA:286,0
DA:287,0
DA:289,0
DA:291,3
DA:292,3
DA:293,3
DA:294,4
DA:295,3
DA:297,3
DA:298,3
DA:299,2
DA:300,0
DA:302,3
DA:304,1
DA:305,1
DA:306,0
DA:307,1
DA:308,1
DA:309,1
DA:310,1
DA:312,2
DA:313,2
DA:315,1
DA:316,1
DA:319,1
DA:320,1
DA:321,1
DA:325,0
DA:327,0
DA:329,2
DA:331,0
DA:332,0
DA:333,0
DA:334,0
DA:336,0
DA:337,0
DA:338,0
DA:341,0
DA:342,0
DA:343,0
DA:344,0
DA:346,1
DA:347,1
DA:348,1
DA:349,3
DA:350,1
DA:351,1
DA:352,1
DA:354,1
DA:355,1
DA:356,1
DA:357,1
DA:358,1
DA:359,1
DA:360,1
DA:361,1
DA:362,1
DA:364,1
DA:365,1
DA:366,1
DA:367,1
DA:368,1
DA:369,1
DA:370,1
DA:371,1
DA:373,1
DA:374,1
DA:375,1
DA:376,2
DA:377,1
DA:378,1
DA:379,1
DA:382,18
DA:383,18
DA:384,12
DA:385,12
DA:386,12
DA:388,1
DA:389,1
DA:390,1
DA:392,3
DA:393,3
DA:394,3
DA:396,1
DA:397,1
DA:398,1
DA:400,1
DA:402,18
DA:405,23
DA:408,23
DA:410,3
DA:411,1
DA:412,1
DA:413,1
DA:414,1
DA:417,0
DA:418,1
DA:421,1
DA:422,1
DA:423,1
DA:424,1
DA:425,1
DA:426,1
DA:429,1
DA:430,1
DA:433,1
DA:434,1
DA:435,1
DA:436,1
DA:437,1
DA:440,2
DA:442,23
DA:449,11
DA:450,11
DA:451,11
DA:454,1
DA:455,1
DA:456,1
DA:457,1
DA:458,1
DA:459,1
DA:460,1
DA:461,1
DA:462,1
DA:463,1
DA:466,1
DA:467,1
DA:468,1
DA:469,1
DA:470,1
DA:471,1
DA:472,1
DA:473,1
DA:474,1
DA:475,1
DA:478,1
DA:479,1
DA:480,1
DA:481,1
DA:482,1
DA:483,1
DA:484,1
DA:485,1
DA:486,1
DA:487,1
DA:488,1
DA:489,1
DA:490,1
DA:493,1
DA:494,1
DA:495,1
DA:496,1
DA:497,1
DA:498,1
DA:499,1
DA:500,1
DA:501,1
DA:502,1
DA:503,1
DA:504,1
DA:505,1
DA:508,1
DA:509,1
DA:510,1
DA:511,1
DA:512,1
DA:513,1
DA:514,1
DA:515,1
DA:516,1
DA:517,1
DA:518,1
DA:519,1
DA:520,1
DA:523,1
DA:524,1
DA:525,1
DA:526,1
DA:527,1
DA:528,1
DA:529,1
DA:530,1
DA:531,1
DA:532,1
DA:533,1
DA:534,1
DA:535,1
DA:536,1
DA:537,1
DA:540,1
DA:541,1
DA:542,1
DA:543,1
DA:544,1
DA:545,1
DA:546,1
DA:547,1
DA:548,1
DA:549,1
DA:550,1
DA:551,1
DA:552,1
DA:553,1
DA:556,1
DA:557,1
DA:558,1
DA:559,1
DA:560,1
DA:561,1
DA:562,1
DA:563,1
DA:564,1
DA:565,1
DA:566,1
DA:567,1
DA:568,1
DA:571,1
DA:572,1
DA:573,1
DA:574,1
DA:575,1
DA:576,1
DA:577,1
DA:578,1
DA:579,1
DA:580,1
DA:581,1
DA:582,1
DA:583,1
DA:586,1
DA:587,1
DA:588,1
DA:589,1
DA:590,1
DA:591,1
DA:592,1
DA:593,1
DA:596,1
DA:597,1
DA:598,1
DA:599,1
DA:600,1
DA:601,1
DA:602,1
DA:603,1
DA:604,1
DA:607,1
DA:608,1
DA:609,1
DA:610,1
DA:611,1
DA:614,1
DA:615,1
DA:616,1
DA:617,1
DA:618,1
DA:619,1
DA:620,1
DA:621,1
DA:624,1
DA:625,1
DA:626,1
DA:627,1
DA:628,1
DA:629,1
DA:632,1
DA:633,1
DA:634,1
DA:635,1
DA:638,1
DA:639,1
DA:642,1
DA:643,1
DA:646,1
DA:647,1
DA:650,1
DA:651,1
DA:652,1
DA:655,1
DA:656,1
DA:657,1
DA:658,1
DA:659,1
DA:660,1
DA:661,1
DA:662,1
DA:663,1
DA:664,1
DA:665,1
DA:666,1
DA:667,1
DA:668,1
DA:669,1
DA:670,1
DA:671,1
DA:672,1
DA:673,1
DA:674,1
DA:675,1
DA:676,1
DA:679,1
DA:680,1
DA:681,1
DA:682,1
DA:683,1
DA:684,1
DA:685,1
DA:686,1
DA:687,1
DA:688,1
DA:689,1
DA:690,1
DA:691,1
DA:692,1
DA:693,1
DA:694,1
DA:695,1
DA:696,1
DA:697,1
DA:698,1
DA:699,1
DA:700,1
DA:703,1
DA:706,1
DA:707,1
BRF:0
BRH:0
LF:549
LH:444
end_of_record
SF:/home/noah/src/depyler/crates/depyler-core/src/error.rs
FN:76,_RINvMs_NtCs1ln2akHD1ak_12depyler_core5errorNtB5_14TranspileError11with_sourcepEB7_
FN:116,_RINvXININtCs1ln2akHD1ak_12depyler_core5errors1_0ppEINtNtCs9sjCchOt1K7_4core6result6ResultppEINtB6_9ResultExtpE12with_contextpEB8_
FN:117,_RNCINvXININtCs1ln2akHD1ak_12depyler_core5errors1_0ppEINtNtCs9sjCchOt1K7_4core6result6ResultppEINtB8_9ResultExtpE12with_contextpE0Ba_
FN:123,_RNvXs2_NtCs1ln2akHD1ak_12depyler_core5errorNtB5_14TranspileErrorINtNtCs9sjCchOt1K7_4core7convert4FromNtCs677MCY2MQMX_6anyhow5ErrorE4from
FN:70,_RINvMs_NtCs1ln2akHD1ak_12depyler_core5errorNtB5_14TranspileError12with_contextReEB7_
FN:64,_RNvMs_NtCs1ln2akHD1ak_12depyler_core5errorNtB4_14TranspileError13with_location
FN:54,_RNvMs_NtCs1ln2akHD1ak_12depyler_core5errorNtB4_14TranspileError3new
FN:13,_RNvXNtCs1ln2akHD1ak_12depyler_core5errorNtB2_14SourceLocationNtNtCs9sjCchOt1K7_4core3fmt7Display3fmt
FN:83,_RNvXs0_NtCs1ln2akHD1ak_12depyler_core5errorNtB5_14TranspileErrorNtNtCs9sjCchOt1K7_4core3fmt7Display3fmt
FN:193,_RNvNtNtCs1ln2akHD1ak_12depyler_core5error5testss_18test_error_display
FN:161,_RNvNtNtCs1ln2akHD1ak_12depyler_core5error5testss_19test_error_creation
FN:182,_RNvNtNtCs1ln2akHD1ak_12depyler_core5error5testss_23test_error_with_context
FN:169,_RNvNtNtCs1ln2akHD1ak_12depyler_core5error5testss_24test_error_with_location
FN:212,_RNvNtNtCs1ln2akHD1ak_12depyler_core5error5testss_26test_transpile_error_macro
FN:76,_RINvMs_NtCsj61Gn7TPfaI_12depyler_core5errorNtB5_14TranspileError11with_sourcepEB7_
FN:70,_RINvMs_NtCsj61Gn7TPfaI_12depyler_core5errorNtB5_14TranspileError12with_contextpEB7_
FN:116,_RINvXININtCsj61Gn7TPfaI_12depyler_core5errors1_0ppEINtNtCs9sjCchOt1K7_4core6result6ResultppEINtB6_9ResultExtpE12with_contextpEB8_
FN:117,_RNCINvXININtCsj61Gn7TPfaI_12depyler_core5errors1_0ppEINtNtCs9sjCchOt1K7_4core6result6ResultppEINtB8_9ResultExtpE12with_contextpE0Ba_
FNDA:0,_RINvMs_NtCs1ln2akHD1ak_12depyler_core5errorNtB5_14TranspileError11with_sourcepEB7_
FNDA:0,_RINvXININtCs1ln2akHD1ak_12depyler_core5errors1_0ppEINtNtCs9sjCchOt1K7_4core6result6ResultppEINtB6_9ResultExtpE12with_contextpEB8_
FNDA:0,_RNCINvXININtCs1ln2akHD1ak_12depyler_core5errors1_0ppEINtNtCs9sjCchOt1K7_4core6result6ResultppEINtB8_9ResultExtpE12with_contextpE0Ba_
FNDA:0,_RNvXs2_NtCs1ln2akHD1ak_12depyler_core5errorNtB5_14TranspileErrorINtNtCs9sjCchOt1K7_4core7convert4FromNtCs677MCY2MQMX_6anyhow5ErrorE4from
FNDA:6,_RINvMs_NtCs1ln2akHD1ak_12depyler_core5errorNtB5_14TranspileError12with_contextReEB7_
FNDA:2,_RNvMs_NtCs1ln2akHD1ak_12depyler_core5errorNtB4_14TranspileError13with_location
FNDA:6,_RNvMs_NtCs1ln2akHD1ak_12depyler_core5errorNtB4_14TranspileError3new
FNDA:1,_RNvXNtCs1ln2akHD1ak_12depyler_core5errorNtB2_14SourceLocationNtNtCs9sjCchOt1K7_4core3fmt7Display3fmt
FNDA:1,_RNvXs0_NtCs1ln2akHD1ak_12depyler_core5errorNtB5_14TranspileErrorNtNtCs9sjCchOt1K7_4core3fmt7Display3fmt
FNDA:1,_RNvNtNtCs1ln2akHD1ak_12depyler_core5error5testss_18test_error_display
FNDA:1,_RNvNtNtCs1ln2akHD1ak_12depyler_core5error5testss_19test_error_creation
FNDA:1,_RNvNtNtCs1ln2akHD1ak_12depyler_core5error5testss_23test_error_with_context
FNDA:1,_RNvNtNtCs1ln2akHD1ak_12depyler_core5error5testss_24test_error_with_location
FNDA:1,_RNvNtNtCs1ln2akHD1ak_12depyler_core5error5testss_26test_transpile_error_macro
FNDA:0,_RINvMs_NtCsj61Gn7TPfaI_12depyler_core5errorNtB5_14TranspileError11with_sourcepEB7_
FNDA:0,_RINvMs_NtCsj61Gn7TPfaI_12depyler_core5errorNtB5_14TranspileError12with_contextpEB7_
FNDA:0,_RINvXININtCsj61Gn7TPfaI_12depyler_core5errors1_0ppEINtNtCs9sjCchOt1K7_4core6result6ResultppEINtB6_9ResultExtpE12with_contextpEB8_
FNDA:0,_RNCINvXININtCsj61Gn7TPfaI_12depyler_core5errors1_0ppEINtNtCs9sjCchOt1K7_4core6result6ResultppEINtB8_9ResultExtpE12with_contextpE0Ba_
FNF:14
FNH:10
DA:13,1
DA:14,1
DA:15,1
DA:54,6
DA:55,6
DA:56,6
DA:57,6
DA:58,6
DA:59,6
DA:60,6
DA:61,6
DA:64,2
DA:65,2
DA:66,2
DA:67,2
DA:70,6
DA:71,6
DA:72,6
DA:73,6
DA:76,0
DA:77,0
DA:78,0
DA:79,0
DA:83,1
DA:84,1
DA:85,1
DA:88,1
DA:89,1
DA:90,0
DA:93,1
DA:94,1
DA:95,2
DA:96,2
DA:98,0
DA:100,1
DA:101,1
DA:116,0
DA:117,0
DA:118,0
DA:123,0
DA:124,0
DA:125,0
DA:161,1
DA:162,1
DA:163,1
DA:164,1
DA:165,1
DA:166,1
DA:169,1
DA:170,1
DA:171,1
DA:172,1
DA:173,1
DA:174,1
DA:175,1
DA:176,1
DA:177,1
DA:178,1
DA:179,1
DA:182,1
DA:183,1
DA:184,1
DA:185,1
DA:186,1
DA:187,1
DA:188,1
DA:189,1
DA:190,1
DA:193,1
DA:194,1
DA:195,1
DA:196,1
DA:197,1
DA:198,1
DA:199,1
DA:200,1
DA:201,1
DA:202,1
DA:203,1
DA:204,1
DA:205,1
DA:206,1
DA:207,1
DA:208,1
DA:209,1
DA:212,1
DA:213,1
DA:214,1
DA:216,1
DA:217,1
DA:218,1
DA:219,1
DA:220,1
DA:221,1
DA:222,1
BRF:0
BRH:0
LF:96
LH:83
end_of_record
SF:/home/noah/src/depyler/crates/depyler-core/src/hir.rs
FN:169,_RNvMNtCs1ln2akHD1ak_12depyler_core3hirNtB2_4Type10is_numeric
FN:173,_RNvMNtCs1ln2akHD1ak_12depyler_core3hirNtB2_4Type12is_container
FN:169,_RNvMNtCsj61Gn7TPfaI_12depyler_core3hirNtB2_4Type10is_numeric
FN:173,_RNvMNtCsj61Gn7TPfaI_12depyler_core3hirNtB2_4Type12is_container
FNDA:0,_RNvMNtCs1ln2akHD1ak_12depyler_core3hirNtB2_4Type10is_numeric
FNDA:0,_RNvMNtCs1ln2akHD1ak_12depyler_core3hirNtB2_4Type12is_container
FNDA:0,_RNvMNtCsj61Gn7TPfaI_12depyler_core3hirNtB2_4Type10is_numeric
FNDA:0,_RNvMNtCsj61Gn7TPfaI_12depyler_core3hirNtB2_4Type12is_container
FNF:2
FNH:0
DA:169,0
DA:170,0
DA:171,0
DA:173,0
DA:174,0
DA:175,0
BRF:0
BRH:0
LF:6
LH:0
end_of_record
SF:/home/noah/src/depyler/crates/depyler-core/src/lib.rs
FN:120,_RNCNvMs_Cs1ln2akHD1ak_12depyler_coreNtB6_15DepylerPipeline12parse_python0B6_
FN:146,_RNvMs0_Cs1ln2akHD1ak_12depyler_coreNtB5_15DepylerPipeline15new_with_config
FN:115,_RNvMs_Cs1ln2akHD1ak_12depyler_coreNtB4_15DepylerPipeline12parse_python
FN:104,_RNvMs_Cs1ln2akHD1ak_12depyler_coreNtB4_15DepylerPipeline12parse_to_hir
FN:83,_RNvMs_Cs1ln2akHD1ak_12depyler_coreNtB4_15DepylerPipeline17with_verification
FN:69,_RNvMs_Cs1ln2akHD1ak_12depyler_coreNtB4_15DepylerPipeline3new
FN:91,_RNvMs_Cs1ln2akHD1ak_12depyler_coreNtB4_15DepylerPipeline9transpile
FN:109,_RNvMs_Cs1ln2akHD1ak_12depyler_coreNtB4_15DepylerPipeline20analyze_to_typed_hir
FN:63,_RNvXCs1ln2akHD1ak_12depyler_coreNtB2_15DepylerPipelineNtNtCs9sjCchOt1K7_4core7default7Default7default
FN:208,_RNvNtCs1ln2akHD1ak_12depyler_core5testss_17test_parse_to_hir
FN:180,_RNvNtCs1ln2akHD1ak_12depyler_core5testss_20test_config_creation
FN:296,_RNvNtCs1ln2akHD1ak_12depyler_core5testss_21test_type_annotations
FN:163,_RNvNtCs1ln2akHD1ak_12depyler_core5testss_22test_pipeline_creation
FN:224,_RNvNtCs1ln2akHD1ak_12depyler_core5testss_22test_validation_result
FN:193,_RNvNtCs1ln2akHD1ak_12depyler_core5testss_25test_simple_transpilation
FN:237,_RNvNtCs1ln2akHD1ak_12depyler_core5testss_26test_invalid_python_syntax
FN:246,_RNvNtCs1ln2akHD1ak_12depyler_core5testss_27test_analyzable_stage_trait
FN:171,_RNvNtCs1ln2akHD1ak_12depyler_core5testss_31test_pipeline_with_verification
FN:278,_RNvNtCs1ln2akHD1ak_12depyler_core5testss_35test_complex_function_transpilation
FN:255,_RNvXNvNtCs1ln2akHD1ak_12depyler_core5testss_27test_analyzable_stage_traitNtB2_9TestStageNtB6_15AnalyzableStage7execute
FN:259,_RNvXNvNtCs1ln2akHD1ak_12depyler_core5testss_27test_analyzable_stage_traitNtB2_9TestStageNtB6_15AnalyzableStage8validate
FN:120,_RNCNvMs_Csj61Gn7TPfaI_12depyler_coreNtB6_15DepylerPipeline12parse_python0B6_
FN:146,_RNvMs0_Csj61Gn7TPfaI_12depyler_coreNtB5_15DepylerPipeline15new_with_config
FN:115,_RNvMs_Csj61Gn7TPfaI_12depyler_coreNtB4_15DepylerPipeline12parse_python
FN:104,_RNvMs_Csj61Gn7TPfaI_12depyler_coreNtB4_15DepylerPipeline12parse_to_hir
FN:83,_RNvMs_Csj61Gn7TPfaI_12depyler_coreNtB4_15DepylerPipeline17with_verification
FN:109,_RNvMs_Csj61Gn7TPfaI_12depyler_coreNtB4_15DepylerPipeline20analyze_to_typed_hir
FN:69,_RNvMs_Csj61Gn7TPfaI_12depyler_coreNtB4_15DepylerPipeline3new
FN:91,_RNvMs_Csj61Gn7TPfaI_12depyler_coreNtB4_15DepylerPipeline9transpile
FN:63,_RNvXCsj61Gn7TPfaI_12depyler_coreNtB2_15DepylerPipelineNtNtCs9sjCchOt1K7_4core7default7Default7default
FNDA:1,_RNCNvMs_Cs1ln2akHD1ak_12depyler_coreNtB6_15DepylerPipeline12parse_python0B6_
FNDA:1,_RNvMs0_Cs1ln2akHD1ak_12depyler_coreNtB5_15DepylerPipeline15new_with_config
FNDA:5,_RNvMs_Cs1ln2akHD1ak_12depyler_coreNtB4_15DepylerPipeline12parse_python
FNDA:2,_RNvMs_Cs1ln2akHD1ak_12depyler_coreNtB4_15DepylerPipeline12parse_to_hir
FNDA:2,_RNvMs_Cs1ln2akHD1ak_12depyler_coreNtB4_15DepylerPipeline17with_verification
FNDA:8,_RNvMs_Cs1ln2akHD1ak_12depyler_coreNtB4_15DepylerPipeline3new
FNDA:3,_RNvMs_Cs1ln2akHD1ak_12depyler_coreNtB4_15DepylerPipeline9transpile
FNDA:0,_RNvMs_Cs1ln2akHD1ak_12depyler_coreNtB4_15DepylerPipeline20analyze_to_typed_hir
FNDA:0,_RNvXCs1ln2akHD1ak_12depyler_coreNtB2_15DepylerPipelineNtNtCs9sjCchOt1K7_4core7default7Default7default
FNDA:1,_RNvNtCs1ln2akHD1ak_12depyler_core5testss_17test_parse_to_hir
FNDA:1,_RNvNtCs1ln2akHD1ak_12depyler_core5testss_20test_config_creation
FNDA:1,_RNvNtCs1ln2akHD1ak_12depyler_core5testss_21test_type_annotations
FNDA:1,_RNvNtCs1ln2akHD1ak_12depyler_core5testss_22test_pipeline_creation
FNDA:1,_RNvNtCs1ln2akHD1ak_12depyler_core5testss_22test_validation_result
FNDA:1,_RNvNtCs1ln2akHD1ak_12depyler_core5testss_25test_simple_transpilation
FNDA:1,_RNvNtCs1ln2akHD1ak_12depyler_core5testss_26test_invalid_python_syntax
FNDA:1,_RNvNtCs1ln2akHD1ak_12depyler_core5testss_27test_analyzable_stage_trait
FNDA:1,_RNvNtCs1ln2akHD1ak_12depyler_core5testss_31test_pipeline_with_verification
FNDA:1,_RNvNtCs1ln2akHD1ak_12depyler_core5testss_35test_complex_function_transpilation
FNDA:1,_RNvXNvNtCs1ln2akHD1ak_12depyler_core5testss_27test_analyzable_stage_traitNtB2_9TestStageNtB6_15AnalyzableStage7execute
FNDA:1,_RNvXNvNtCs1ln2akHD1ak_12depyler_core5testss_27test_analyzable_stage_traitNtB2_9TestStageNtB6_15AnalyzableStage8validate
FNDA:0,_RNCNvMs_Csj61Gn7TPfaI_12depyler_coreNtB6_15DepylerPipeline12parse_python0B6_
FNDA:0,_RNvMs0_Csj61Gn7TPfaI_12depyler_coreNtB5_15DepylerPipeline15new_with_config
FNDA:1,_RNvMs_Csj61Gn7TPfaI_12depyler_coreNtB4_15DepylerPipeline12parse_python
FNDA:0,_RNvMs_Csj61Gn7TPfaI_12depyler_coreNtB4_15DepylerPipeline12parse_to_hir
FNDA:0,_RNvMs_Csj61Gn7TPfaI_12depyler_coreNtB4_15DepylerPipeline17with_verification
FNDA:0,_RNvMs_Csj61Gn7TPfaI_12depyler_coreNtB4_15DepylerPipeline20analyze_to_typed_hir
FNDA:7,_RNvMs_Csj61Gn7TPfaI_12depyler_coreNtB4_15DepylerPipeline3new
FNDA:1,_RNvMs_Csj61Gn7TPfaI_12depyler_coreNtB4_15DepylerPipeline9transpile
FNDA:0,_RNvXCsj61Gn7TPfaI_12depyler_coreNtB2_15DepylerPipelineNtNtCs9sjCchOt1K7_4core7default7Default7default
FNF:21
FNH:19
DA:63,0
DA:64,0
DA:65,0
DA:69,15
DA:70,15
DA:71,15
DA:72,15
DA:73,15
DA:74,15
DA:75,15
DA:76,15
DA:77,15
DA:78,15
DA:79,15
DA:80,15
DA:81,15
DA:83,2
DA:84,2
DA:85,2
DA:86,2
DA:87,2
DA:88,2
DA:89,2
DA:91,4
DA:93,4
DA:96,3
DA:99,3
DA:101,3
DA:102,4
DA:104,2
DA:105,2
DA:106,2
DA:107,2
DA:109,0
DA:110,0
DA:111,0
DA:112,0
DA:113,0
DA:115,6
DA:119,6
DA:120,6
DA:122,5
DA:123,5
DA:124,5
DA:125,5
DA:126,5
DA:127,6
DA:146,1
DA:147,1
DA:148,1
DA:149,1
DA:150,1
DA:151,1
DA:152,1
DA:154,1
DA:155,1
DA:163,1
DA:164,1
DA:165,1
DA:166,1
DA:167,1
DA:168,1
DA:171,1
DA:172,1
DA:173,1
DA:174,1
DA:175,1
DA:176,1
DA:177,1
DA:180,1
DA:181,1
DA:182,1
DA:183,1
DA:184,1
DA:185,1
DA:186,1
DA:187,1
DA:188,1
DA:189,1
DA:190,1
DA:193,1
DA:194,1
DA:195,1
DA:196,1
DA:197,1
DA:198,1
DA:199,1
DA:200,1
DA:201,1
DA:202,1
DA:203,1
DA:204,1
DA:205,1
DA:208,1
DA:209,1
DA:210,1
DA:211,1
DA:212,1
DA:213,1
DA:214,1
DA:215,1
DA:216,1
DA:217,1
DA:218,1
DA:219,1
DA:220,1
DA:221,1
DA:224,1
DA:225,1
DA:226,1
DA:227,1
DA:228,1
DA:229,1
DA:230,1
DA:231,1
DA:232,1
DA:233,1
DA:234,1
DA:237,1
DA:238,1
DA:239,1
DA:240,1
DA:241,1
DA:242,1
DA:243,1
DA:246,1
DA:255,1
DA:256,1
DA:257,1
DA:259,1
DA:260,1
DA:261,1
DA:262,1
DA:263,1
DA:264,1
DA:265,1
DA:268,1
DA:269,1
DA:270,1
DA:271,1
DA:273,1
DA:274,1
DA:275,1
DA:278,1
DA:279,1
DA:280,1
DA:281,1
DA:282,1
DA:283,1
DA:284,1
DA:285,1
DA:286,1
DA:287,1
DA:288,1
DA:289,1
DA:290,1
DA:291,1
DA:292,1
DA:293,1
DA:296,1
DA:297,1
DA:298,1
DA:299,1
DA:300,1
DA:301,1
DA:302,1
DA:303,1
DA:304,1
DA:305,1
DA:306,1
DA:307,1
DA:308,1
DA:309,1
DA:310,1
DA:311,1
DA:312,1
DA:313,1
DA:314,1
DA:315,1
DA:316,1
DA:317,1
DA:318,1
BRF:0
BRH:0
LF:183
LH:175
end_of_record
SF:/home/noah/src/depyler/crates/depyler-core/src/rust_gen.rs
FN:31,_RNCNvNtCs1ln2akHD1ak_12depyler_core8rust_gen18generate_rust_file0B5_
FN:61,_RNCNvXNtCs1ln2akHD1ak_12depyler_core8rust_genNtNtB6_3hir11HirFunctionNtB4_11RustCodeGen14to_rust_tokens0B6_
FN:90,_RNCNvXNtCs1ln2akHD1ak_12depyler_core8rust_genNtNtB6_3hir11HirFunctionNtB4_11RustCodeGen14to_rust_tokenss_0B6_
FN:226,_RNCNvXs0_NtCs1ln2akHD1ak_12depyler_core8rust_genNtNtB9_3hir7HirExprNtB7_10ToRustExpr12to_rust_expr0B9_
FN:290,_RNCNvXs0_NtCs1ln2akHD1ak_12depyler_core8rust_genNtNtB9_3hir7HirExprNtB7_10ToRustExpr12to_rust_exprs0_0B9_
FN:267,_RNCNvXs0_NtCs1ln2akHD1ak_12depyler_core8rust_genNtNtB9_3hir7HirExprNtB7_10ToRustExpr12to_rust_exprs_0B9_
FN:139,_RNCNvXs_NtCs1ln2akHD1ak_12depyler_core8rust_genNtNtB8_3hir7HirStmtNtB6_11RustCodeGen14to_rust_tokens0B8_
FN:166,_RNCNvXs_NtCs1ln2akHD1ak_12depyler_core8rust_genNtNtB8_3hir7HirStmtNtB6_11RustCodeGen14to_rust_tokenss0_0B8_
FN:179,_RNCNvXs_NtCs1ln2akHD1ak_12depyler_core8rust_genNtNtB8_3hir7HirStmtNtB6_11RustCodeGen14to_rust_tokenss1_0B8_
FN:145,_RNCNvXs_NtCs1ln2akHD1ak_12depyler_core8rust_genNtNtB8_3hir7HirStmtNtB6_11RustCodeGen14to_rust_tokenss_0B8_
FN:54,_RNvXNtCs1ln2akHD1ak_12depyler_core8rust_genNtNtB4_3hir11HirFunctionNtB2_11RustCodeGen14to_rust_tokens
FN:201,_RNvXs0_NtCs1ln2akHD1ak_12depyler_core8rust_genNtNtB7_3hir7HirExprNtB5_10ToRustExpr12to_rust_expr
FN:116,_RNvXs_NtCs1ln2akHD1ak_12depyler_core8rust_genNtNtB6_3hir7HirStmtNtB4_11RustCodeGen14to_rust_tokens
FN:417,_RNvNtNtCs1ln2akHD1ak_12depyler_core8rust_gen5tests19create_test_context
FN:475,_RNvNtNtCs1ln2akHD1ak_12depyler_core8rust_gen5testss_20test_list_generation
FN:508,_RNvNtNtCs1ln2akHD1ak_12depyler_core8rust_gen5testss_22test_binary_operations
FN:524,_RNvNtNtCs1ln2akHD1ak_12depyler_core8rust_gen5testss_26test_unsupported_operators
FN:450,_RNvNtNtCs1ln2akHD1ak_12depyler_core8rust_gen5testss_28test_control_flow_generation
FN:427,_RNvNtNtCs1ln2akHD1ak_12depyler_core8rust_gen5testss_31test_simple_function_generation
FN:493,_RNvNtNtCs1ln2akHD1ak_12depyler_core8rust_gen5testss_39test_dict_generation_sets_needs_hashmap
FN:333,_RNvNtCs1ln2akHD1ak_12depyler_core8rust_gen13convert_binop
FN:401,_RNvNtCs1ln2akHD1ak_12depyler_core8rust_gen16format_rust_code
FN:372,_RNvNtCs1ln2akHD1ak_12depyler_core8rust_gen16rust_type_to_syn
FN:18,_RNvNtCs1ln2akHD1ak_12depyler_core8rust_gen18generate_rust_file
FN:311,_RNvNtCs1ln2akHD1ak_12depyler_core8rust_gen20literal_to_rust_expr
FN:31,_RNCNvNtCsj61Gn7TPfaI_12depyler_core8rust_gen18generate_rust_file0B5_
FN:61,_RNCNvXNtCsj61Gn7TPfaI_12depyler_core8rust_genNtNtB6_3hir11HirFunctionNtB4_11RustCodeGen14to_rust_tokens0B6_
FN:90,_RNCNvXNtCsj61Gn7TPfaI_12depyler_core8rust_genNtNtB6_3hir11HirFunctionNtB4_11RustCodeGen14to_rust_tokenss_0B6_
FN:226,_RNCNvXs0_NtCsj61Gn7TPfaI_12depyler_core8rust_genNtNtB9_3hir7HirExprNtB7_10ToRustExpr12to_rust_expr0B9_
FN:290,_RNCNvXs0_NtCsj61Gn7TPfaI_12depyler_core8rust_genNtNtB9_3hir7HirExprNtB7_10ToRustExpr12to_rust_exprs0_0B9_
FN:267,_RNCNvXs0_NtCsj61Gn7TPfaI_12depyler_core8rust_genNtNtB9_3hir7HirExprNtB7_10ToRustExpr12to_rust_exprs_0B9_
FN:139,_RNCNvXs_NtCsj61Gn7TPfaI_12depyler_core8rust_genNtNtB8_3hir7HirStmtNtB6_11RustCodeGen14to_rust_tokens0B8_
FN:166,_RNCNvXs_NtCsj61Gn7TPfaI_12depyler_core8rust_genNtNtB8_3hir7HirStmtNtB6_11RustCodeGen14to_rust_tokenss0_0B8_
FN:179,_RNCNvXs_NtCsj61Gn7TPfaI_12depyler_core8rust_genNtNtB8_3hir7HirStmtNtB6_11RustCodeGen14to_rust_tokenss1_0B8_
FN:145,_RNCNvXs_NtCsj61Gn7TPfaI_12depyler_core8rust_genNtNtB8_3hir7HirStmtNtB6_11RustCodeGen14to_rust_tokenss_0B8_
FN:54,_RNvXNtCsj61Gn7TPfaI_12depyler_core8rust_genNtNtB4_3hir11HirFunctionNtB2_11RustCodeGen14to_rust_tokens
FN:201,_RNvXs0_NtCsj61Gn7TPfaI_12depyler_core8rust_genNtNtB7_3hir7HirExprNtB5_10ToRustExpr12to_rust_expr
FN:116,_RNvXs_NtCsj61Gn7TPfaI_12depyler_core8rust_genNtNtB6_3hir7HirStmtNtB4_11RustCodeGen14to_rust_tokens
FN:333,_RNvNtCsj61Gn7TPfaI_12depyler_core8rust_gen13convert_binop
FN:401,_RNvNtCsj61Gn7TPfaI_12depyler_core8rust_gen16format_rust_code
FN:372,_RNvNtCsj61Gn7TPfaI_12depyler_core8rust_gen16rust_type_to_syn
FN:18,_RNvNtCsj61Gn7TPfaI_12depyler_core8rust_gen18generate_rust_file
FN:311,_RNvNtCsj61Gn7TPfaI_12depyler_core8rust_gen20literal_to_rust_expr
FNDA:2,_RNCNvNtCs1ln2akHD1ak_12depyler_core8rust_gen18generate_rust_file0B5_
FNDA:5,_RNCNvXNtCs1ln2akHD1ak_12depyler_core8rust_genNtNtB6_3hir11HirFunctionNtB4_11RustCodeGen14to_rust_tokens0B6_
FNDA:4,_RNCNvXNtCs1ln2akHD1ak_12depyler_core8rust_genNtNtB6_3hir11HirFunctionNtB4_11RustCodeGen14to_rust_tokenss_0B6_
FNDA:2,_RNCNvXs0_NtCs1ln2akHD1ak_12depyler_core8rust_genNtNtB9_3hir7HirExprNtB7_10ToRustExpr12to_rust_expr0B9_
FNDA:0,_RNCNvXs0_NtCs1ln2akHD1ak_12depyler_core8rust_genNtNtB9_3hir7HirExprNtB7_10ToRustExpr12to_rust_exprs0_0B9_
FNDA:3,_RNCNvXs0_NtCs1ln2akHD1ak_12depyler_core8rust_genNtNtB9_3hir7HirExprNtB7_10ToRustExpr12to_rust_exprs_0B9_
FNDA:2,_RNCNvXs_NtCs1ln2akHD1ak_12depyler_core8rust_genNtNtB8_3hir7HirStmtNtB6_11RustCodeGen14to_rust_tokens0B8_
FNDA:0,_RNCNvXs_NtCs1ln2akHD1ak_12depyler_core8rust_genNtNtB8_3hir7HirStmtNtB6_11RustCodeGen14to_rust_tokenss0_0B8_
FNDA:0,_RNCNvXs_NtCs1ln2akHD1ak_12depyler_core8rust_genNtNtB8_3hir7HirStmtNtB6_11RustCodeGen14to_rust_tokenss1_0B8_
FNDA:1,_RNCNvXs_NtCs1ln2akHD1ak_12depyler_core8rust_genNtNtB8_3hir7HirStmtNtB6_11RustCodeGen14to_rust_tokenss_0B8_
FNDA:3,_RNvXNtCs1ln2akHD1ak_12depyler_core8rust_genNtNtB4_3hir11HirFunctionNtB2_11RustCodeGen14to_rust_tokens
FNDA:31,_RNvXs0_NtCs1ln2akHD1ak_12depyler_core8rust_genNtNtB7_3hir7HirExprNtB5_10ToRustExpr12to_rust_expr
FNDA:8,_RNvXs_NtCs1ln2akHD1ak_12depyler_core8rust_genNtNtB6_3hir7HirStmtNtB4_11RustCodeGen14to_rust_tokens
FNDA:4,_RNvNtNtCs1ln2akHD1ak_12depyler_core8rust_gen5tests19create_test_context
FNDA:1,_RNvNtNtCs1ln2akHD1ak_12depyler_core8rust_gen5testss_20test_list_generation
FNDA:1,_RNvNtNtCs1ln2akHD1ak_12depyler_core8rust_gen5testss_22test_binary_operations
FNDA:1,_RNvNtNtCs1ln2akHD1ak_12depyler_core8rust_gen5testss_26test_unsupported_operators
FNDA:1,_RNvNtNtCs1ln2akHD1ak_12depyler_core8rust_gen5testss_28test_control_flow_generation
FNDA:1,_RNvNtNtCs1ln2akHD1ak_12depyler_core8rust_gen5testss_31test_simple_function_generation
FNDA:1,_RNvNtNtCs1ln2akHD1ak_12depyler_core8rust_gen5testss_39test_dict_generation_sets_needs_hashmap
FNDA:15,_RNvNtCs1ln2akHD1ak_12depyler_core8rust_gen13convert_binop
FNDA:2,_RNvNtCs1ln2akHD1ak_12depyler_core8rust_gen16format_rust_code
FNDA:8,_RNvNtCs1ln2akHD1ak_12depyler_core8rust_gen16rust_type_to_syn
FNDA:2,_RNvNtCs1ln2akHD1ak_12depyler_core8rust_gen18generate_rust_file
FNDA:11,_RNvNtCs1ln2akHD1ak_12depyler_core8rust_gen20literal_to_rust_expr
FNDA:1,_RNCNvNtCsj61Gn7TPfaI_12depyler_core8rust_gen18generate_rust_file0B5_
FNDA:2,_RNCNvXNtCsj61Gn7TPfaI_12depyler_core8rust_genNtNtB6_3hir11HirFunctionNtB4_11RustCodeGen14to_rust_tokens0B6_
FNDA:1,_RNCNvXNtCsj61Gn7TPfaI_12depyler_core8rust_genNtNtB6_3hir11HirFunctionNtB4_11RustCodeGen14to_rust_tokenss_0B6_
FNDA:0,_RNCNvXs0_NtCsj61Gn7TPfaI_12depyler_core8rust_genNtNtB9_3hir7HirExprNtB7_10ToRustExpr12to_rust_expr0B9_
FNDA:0,_RNCNvXs0_NtCsj61Gn7TPfaI_12depyler_core8rust_genNtNtB9_3hir7HirExprNtB7_10ToRustExpr12to_rust_exprs0_0B9_
FNDA:0,_RNCNvXs0_NtCsj61Gn7TPfaI_12depyler_core8rust_genNtNtB9_3hir7HirExprNtB7_10ToRustExpr12to_rust_exprs_0B9_
FNDA:0,_RNCNvXs_NtCsj61Gn7TPfaI_12depyler_core8rust_genNtNtB8_3hir7HirStmtNtB6_11RustCodeGen14to_rust_tokens0B8_
FNDA:0,_RNCNvXs_NtCsj61Gn7TPfaI_12depyler_core8rust_genNtNtB8_3hir7HirStmtNtB6_11RustCodeGen14to_rust_tokenss0_0B8_
FNDA:0,_RNCNvXs_NtCsj61Gn7TPfaI_12depyler_core8rust_genNtNtB8_3hir7HirStmtNtB6_11RustCodeGen14to_rust_tokenss1_0B8_
FNDA:0,_RNCNvXs_NtCsj61Gn7TPfaI_12depyler_core8rust_genNtNtB8_3hir7HirStmtNtB6_11RustCodeGen14to_rust_tokenss_0B8_
FNDA:1,_RNvXNtCsj61Gn7TPfaI_12depyler_core8rust_genNtNtB4_3hir11HirFunctionNtB2_11RustCodeGen14to_rust_tokens
FNDA:3,_RNvXs0_NtCsj61Gn7TPfaI_12depyler_core8rust_genNtNtB7_3hir7HirExprNtB5_10ToRustExpr12to_rust_expr
FNDA:1,_RNvXs_NtCsj61Gn7TPfaI_12depyler_core8rust_genNtNtB6_3hir7HirStmtNtB4_11RustCodeGen14to_rust_tokens
FNDA:1,_RNvNtCsj61Gn7TPfaI_12depyler_core8rust_gen13convert_binop
FNDA:1,_RNvNtCsj61Gn7TPfaI_12depyler_core8rust_gen16format_rust_code
FNDA:3,_RNvNtCsj61Gn7TPfaI_12depyler_core8rust_gen16rust_type_to_syn
FNDA:1,_RNvNtCsj61Gn7TPfaI_12depyler_core8rust_gen18generate_rust_file
FNDA:0,_RNvNtCsj61Gn7TPfaI_12depyler_core8rust_gen20literal_to_rust_expr
FNF:25
FNH:22
DA:18,3
DA:19,3
DA:20,3
DA:21,3
DA:22,3
DA:23,3
DA:24,3
DA:25,3
DA:28,3
DA:29,3
DA:30,3
DA:31,3
DA:32,3
DA:34,3
DA:35,3
DA:36,3
DA:37,3
DA:38,0
DA:39,0
DA:40,0
DA:41,3
DA:44,3
DA:46,3
DA:47,3
DA:48,3
DA:50,3
DA:51,3
DA:54,4
DA:55,4
DA:58,4
DA:59,4
DA:60,4
DA:61,7
DA:62,7
DA:63,7
DA:64,7
DA:67,7
DA:68,0
DA:70,7
DA:73,7
DA:74,7
DA:75,4
DA:78,4
DA:79,4
DA:80,0
DA:82,4
DA:83,4
DA:87,4
DA:88,4
DA:89,4
DA:90,5
DA:91,4
DA:94,4
DA:95,4
DA:96,3
DA:97,3
DA:98,3
DA:99,3
DA:100,4
DA:101,3
DA:102,3
DA:103,3
DA:104,3
DA:106,4
DA:107,4
DA:108,4
DA:109,4
DA:110,4
DA:111,4
DA:112,4
DA:116,9
DA:117,9
DA:118,0
DA:119,0
DA:120,0
DA:121,0
DA:123,7
DA:124,7
DA:125,7
DA:126,7
DA:128,0
DA:132,2
DA:133,2
DA:134,2
DA:136,2
DA:137,2
DA:138,2
DA:139,2
DA:140,2
DA:142,2
DA:143,1
DA:144,1
DA:145,1
DA:146,1
DA:147,1
DA:148,1
DA:149,1
DA:150,1
DA:151,1
DA:152,1
DA:153,1
DA:155,1
DA:156,1
DA:157,1
DA:158,1
DA:159,1
DA:162,0
DA:163,0
DA:164,0
DA:165,0
DA:166,0
DA:167,0
DA:168,0
DA:169,0
DA:170,0
DA:171,0
DA:172,0
DA:174,0
DA:175,0
DA:176,0
DA:177,0
DA:178,0
DA:179,0
DA:180,0
DA:181,0
DA:182,0
DA:183,0
DA:184,0
DA:185,0
DA:187,0
DA:188,0
DA:189,0
DA:192,9
DA:201,34
DA:202,34
DA:203,11
DA:204,11
DA:205,11
DA:206,11
DA:208,8
DA:209,8
DA:210,8
DA:211,8
DA:212,8
DA:214,0
DA:215,0
DA:216,0
DA:217,0
DA:218,0
DA:219,0
DA:220,0
DA:223,2
DA:224,2
DA:225,2
DA:226,2
DA:227,2
DA:229,2
DA:230,2
DA:231,0
DA:232,0
DA:233,0
DA:234,0
DA:235,0
DA:237,2
DA:239,0
DA:240,0
DA:243,0
DA:244,0
DA:245,0
DA:247,0
DA:248,0
DA:251,2
DA:252,2
DA:256,0
DA:257,0
DA:258,0
DA:260,0
DA:261,0
DA:262,0
DA:264,1
DA:265,1
DA:266,1
DA:267,3
DA:268,1
DA:269,1
DA:271,1
DA:272,1
DA:273,1
DA:274,2
DA:275,1
DA:276,1
DA:277,1
DA:279,1
DA:280,1
DA:281,1
DA:282,1
DA:283,1
DA:284,1
DA:285,1
DA:287,0
DA:288,0
DA:289,0
DA:290,0
DA:291,0
DA:292,0
DA:294,0
DA:295,0
DA:296,0
DA:297,0
DA:299,0
DA:300,0
DA:301,0
DA:302,0
DA:304,0
DA:308,34
DA:311,11
DA:312,11
DA:313,8
DA:314,8
DA:315,8
DA:317,0
DA:318,0
DA:319,0
DA:321,3
DA:322,3
DA:323,3
DA:325,0
DA:326,0
DA:327,0
DA:329,0
DA:331,11
DA:333,16
DA:336,16
DA:338,5
DA:339,3
DA:340,1
DA:341,0
DA:342,0
DA:345,0
DA:346,1
DA:349,1
DA:350,0
DA:351,1
DA:352,1
DA:353,1
DA:354,0
DA:357,0
DA:358,0
DA:361,0
DA:362,0
DA:363,0
DA:364,0
DA:365,0
DA:368,2
DA:370,16
DA:372,11
DA:375,11
DA:376,11
DA:377,11
DA:378,11
DA:380,0
DA:381,0
DA:382,0
DA:383,0
DA:385,0
DA:386,0
DA:387,0
DA:388,0
DA:390,0
DA:391,0
DA:392,0
DA:394,0
DA:395,0
DA:397,11
DA:401,3
DA:402,3
DA:403,3
DA:404,3
DA:405,3
DA:406,3
DA:407,3
DA:408,3
DA:409,3
DA:410,3
DA:417,4
DA:418,4
DA:419,4
DA:420,4
DA:421,4
DA:422,4
DA:423,4
DA:424,4
DA:427,1
DA:428,1
DA:429,1
DA:430,1
DA:431,1
DA:432,1
DA:433,1
DA:434,1
DA:435,1
DA:436,1
DA:437,1
DA:438,1
DA:439,1
DA:440,1
DA:441,1
DA:442,1
DA:443,1
DA:444,1
DA:445,1
DA:446,1
DA:447,1
DA:450,1
DA:451,1
DA:452,1
DA:453,1
DA:454,1
DA:455,1
DA:456,1
DA:457,1
DA:458,1
DA:459,1
DA:460,1
DA:461,1
DA:462,1
DA:463,1
DA:464,1
DA:465,1
DA:466,1
DA:467,1
DA:468,1
DA:469,1
DA:470,1
DA:471,1
DA:472,1
DA:475,1
DA:476,1
DA:477,1
DA:478,1
DA:479,1
DA:480,1
DA:481,1
DA:482,1
DA:483,1
DA:484,1
DA:485,1
DA:486,1
DA:487,1
DA:488,1
DA:489,1
DA:490,1
DA:493,1
DA:494,1
DA:495,1
DA:496,1
DA:497,1
DA:498,1
DA:499,1
DA:500,1
DA:502,1
DA:503,1
DA:504,1
DA:505,1
DA:508,1
DA:509,1
DA:510,1
DA:511,1
DA:512,1
DA:513,1
DA:514,1
DA:515,1
DA:517,6
DA:518,5
DA:519,5
DA:521,1
DA:524,1
DA:525,1
DA:526,1
DA:527,1
DA:528,1
BRF:0
BRH:0
LF:392
LH:281
end_of_record
SF:/home/noah/src/depyler/crates/depyler-core/src/type_mapper.rs
FN:188,_RNCNvMs0_NtCs1ln2akHD1ak_12depyler_core11type_mapperNtB7_8RustType14to_rust_string0B9_
FN:113,_RNCNvMs_NtCs1ln2akHD1ak_12depyler_core11type_mapperNtB6_10TypeMapper8map_type0B8_
FN:363,_RNvNtNtCs1ln2akHD1ak_12depyler_core11type_mapper5testss_13test_can_copy
FN:321,_RNvNtNtCs1ln2akHD1ak_12depyler_core11type_mapper5testss_18test_tuple_mapping
FN:350,_RNvNtNtCs1ln2akHD1ak_12depyler_core11type_mapper5testss_20test_needs_reference
FN:270,_RNvNtNtCs1ln2akHD1ak_12depyler_core11type_mapper5testss_21test_width_preference
FN:246,_RNvNtNtCs1ln2akHD1ak_12depyler_core11type_mapper5testss_23test_basic_type_mapping
FN:226,_RNvNtNtCs1ln2akHD1ak_12depyler_core11type_mapper5testss_24test_default_type_mapper
FN:338,_RNvNtNtCs1ln2akHD1ak_12depyler_core11type_mapper5testss_24test_return_type_mapping
FN:391,_RNvNtNtCs1ln2akHD1ak_12depyler_core11type_mapper5testss_24test_rust_type_to_string
FN:292,_RNvNtNtCs1ln2akHD1ak_12depyler_core11type_mapper5testss_25test_complex_type_mapping
FN:233,_RNvNtNtCs1ln2akHD1ak_12depyler_core11type_mapper5testss_25test_type_mapper_creation
FN:422,_RNvNtNtCs1ln2akHD1ak_12depyler_core11type_mapper5testss_29test_primitive_type_to_string
FN:454,_RNvNtNtCs1ln2akHD1ak_12depyler_core11type_mapper5testss_30test_function_type_unsupported
FN:431,_RNvNtNtCs1ln2akHD1ak_12depyler_core11type_mapper5testss_33test_custom_and_unsupported_types
FN:145,_RNCNvMs_NtCs1ln2akHD1ak_12depyler_core11type_mapperNtB6_10TypeMapper8can_copy0B8_
FN:152,_RNvMs0_NtCs1ln2akHD1ak_12depyler_core11type_mapperNtB5_8RustType14to_rust_string
FN:200,_RNvMs1_NtCs1ln2akHD1ak_12depyler_core11type_mapperNtB5_13PrimitiveType14to_rust_string
FN:125,_RNvMs_NtCs1ln2akHD1ak_12depyler_core11type_mapperNtB4_10TypeMapper15map_return_type
FN:132,_RNvMs_NtCs1ln2akHD1ak_12depyler_core11type_mapperNtB4_10TypeMapper15needs_reference
FN:87,_RNvMs_NtCs1ln2akHD1ak_12depyler_core11type_mapperNtB4_10TypeMapper20with_string_strategy
FN:78,_RNvMs_NtCs1ln2akHD1ak_12depyler_core11type_mapperNtB4_10TypeMapper3new
FN:142,_RNvMs_NtCs1ln2akHD1ak_12depyler_core11type_mapperNtB4_10TypeMapper8can_copy
FN:92,_RNvMs_NtCs1ln2akHD1ak_12depyler_core11type_mapperNtB4_10TypeMapper8map_type
FN:82,_RNvMs_NtCs1ln2akHD1ak_12depyler_core11type_mapperNtB4_10TypeMapper8with_i64
FN:69,_RNvXNtCs1ln2akHD1ak_12depyler_core11type_mapperNtB2_10TypeMapperNtNtCs9sjCchOt1K7_4core7default7Default7default
FN:188,_RNCNvMs0_NtCsj61Gn7TPfaI_12depyler_core11type_mapperNtB7_8RustType14to_rust_string0B9_
FN:113,_RNCNvMs_NtCsj61Gn7TPfaI_12depyler_core11type_mapperNtB6_10TypeMapper8map_type0B8_
FN:145,_RNCNvMs_NtCsj61Gn7TPfaI_12depyler_core11type_mapperNtB6_10TypeMapper8can_copy0B8_
FN:152,_RNvMs0_NtCsj61Gn7TPfaI_12depyler_core11type_mapperNtB5_8RustType14to_rust_string
FN:200,_RNvMs1_NtCsj61Gn7TPfaI_12depyler_core11type_mapperNtB5_13PrimitiveType14to_rust_string
FN:125,_RNvMs_NtCsj61Gn7TPfaI_12depyler_core11type_mapperNtB4_10TypeMapper15map_return_type
FN:132,_RNvMs_NtCsj61Gn7TPfaI_12depyler_core11type_mapperNtB4_10TypeMapper15needs_reference
FN:87,_RNvMs_NtCsj61Gn7TPfaI_12depyler_core11type_mapperNtB4_10TypeMapper20with_string_strategy
FN:78,_RNvMs_NtCsj61Gn7TPfaI_12depyler_core11type_mapperNtB4_10TypeMapper3new
FN:142,_RNvMs_NtCsj61Gn7TPfaI_12depyler_core11type_mapperNtB4_10TypeMapper8can_copy
FN:92,_RNvMs_NtCsj61Gn7TPfaI_12depyler_core11type_mapperNtB4_10TypeMapper8map_type
FN:82,_RNvMs_NtCsj61Gn7TPfaI_12depyler_core11type_mapperNtB4_10TypeMapper8with_i64
FN:69,_RNvXNtCsj61Gn7TPfaI_12depyler_core11type_mapperNtB2_10TypeMapperNtNtCs9sjCchOt1K7_4core7default7Default7default
FNDA:2,_RNCNvMs0_NtCs1ln2akHD1ak_12depyler_core11type_mapperNtB7_8RustType14to_rust_string0B9_
FNDA:3,_RNCNvMs_NtCs1ln2akHD1ak_12depyler_core11type_mapperNtB6_10TypeMapper8map_type0B8_
FNDA:1,_RNvNtNtCs1ln2akHD1ak_12depyler_core11type_mapper5testss_13test_can_copy
FNDA:1,_RNvNtNtCs1ln2akHD1ak_12depyler_core11type_mapper5testss_18test_tuple_mapping
FNDA:1,_RNvNtNtCs1ln2akHD1ak_12depyler_core11type_mapper5testss_20test_needs_reference
FNDA:1,_RNvNtNtCs1ln2akHD1ak_12depyler_core11type_mapper5testss_21test_width_preference
FNDA:1,_RNvNtNtCs1ln2akHD1ak_12depyler_core11type_mapper5testss_23test_basic_type_mapping
FNDA:1,_RNvNtNtCs1ln2akHD1ak_12depyler_core11type_mapper5testss_24test_default_type_mapper
FNDA:1,_RNvNtNtCs1ln2akHD1ak_12depyler_core11type_mapper5testss_24test_return_type_mapping
FNDA:1,_RNvNtNtCs1ln2akHD1ak_12depyler_core11type_mapper5testss_24test_rust_type_to_string
FNDA:1,_RNvNtNtCs1ln2akHD1ak_12depyler_core11type_mapper5testss_25test_complex_type_mapping
FNDA:1,_RNvNtNtCs1ln2akHD1ak_12depyler_core11type_mapper5testss_25test_type_mapper_creation
FNDA:1,_RNvNtNtCs1ln2akHD1ak_12depyler_core11type_mapper5testss_29test_primitive_type_to_string
FNDA:1,_RNvNtNtCs1ln2akHD1ak_12depyler_core11type_mapper5testss_30test_function_type_unsupported
FNDA:1,_RNvNtNtCs1ln2akHD1ak_12depyler_core11type_mapper5testss_33test_custom_and_unsupported_types
FNDA:4,_RNCNvMs_NtCs1ln2akHD1ak_12depyler_core11type_mapperNtB6_10TypeMapper8can_copy0B8_
FNDA:15,_RNvMs0_NtCs1ln2akHD1ak_12depyler_core11type_mapperNtB5_8RustType14to_rust_string
FNDA:22,_RNvMs1_NtCs1ln2akHD1ak_12depyler_core11type_mapperNtB5_13PrimitiveType14to_rust_string
FNDA:7,_RNvMs_NtCs1ln2akHD1ak_12depyler_core11type_mapperNtB4_10TypeMapper15map_return_type
FNDA:12,_RNvMs_NtCs1ln2akHD1ak_12depyler_core11type_mapperNtB4_10TypeMapper15needs_reference
FNDA:1,_RNvMs_NtCs1ln2akHD1ak_12depyler_core11type_mapperNtB4_10TypeMapper20with_string_strategy
FNDA:13,_RNvMs_NtCs1ln2akHD1ak_12depyler_core11type_mapperNtB4_10TypeMapper3new
FNDA:10,_RNvMs_NtCs1ln2akHD1ak_12depyler_core11type_mapperNtB4_10TypeMapper8can_copy
FNDA:36,_RNvMs_NtCs1ln2akHD1ak_12depyler_core11type_mapperNtB4_10TypeMapper8map_type
FNDA:2,_RNvMs_NtCs1ln2akHD1ak_12depyler_core11type_mapperNtB4_10TypeMapper8with_i64
FNDA:37,_RNvXNtCs1ln2akHD1ak_12depyler_core11type_mapperNtB2_10TypeMapperNtNtCs9sjCchOt1K7_4core7default7Default7default
FNDA:0,_RNCNvMs0_NtCsj61Gn7TPfaI_12depyler_core11type_mapperNtB7_8RustType14to_rust_string0B9_
FNDA:0,_RNCNvMs_NtCsj61Gn7TPfaI_12depyler_core11type_mapperNtB6_10TypeMapper8map_type0B8_
FNDA:0,_RNCNvMs_NtCsj61Gn7TPfaI_12depyler_core11type_mapperNtB6_10TypeMapper8can_copy0B8_
FNDA:0,_RNvMs0_NtCsj61Gn7TPfaI_12depyler_core11type_mapperNtB5_8RustType14to_rust_string
FNDA:3,_RNvMs1_NtCsj61Gn7TPfaI_12depyler_core11type_mapperNtB5_13PrimitiveType14to_rust_string
FNDA:1,_RNvMs_NtCsj61Gn7TPfaI_12depyler_core11type_mapperNtB4_10TypeMapper15map_return_type
FNDA:2,_RNvMs_NtCsj61Gn7TPfaI_12depyler_core11type_mapperNtB4_10TypeMapper15needs_reference
FNDA:0,_RNvMs_NtCsj61Gn7TPfaI_12depyler_core11type_mapperNtB4_10TypeMapper20with_string_strategy
FNDA:0,_RNvMs_NtCsj61Gn7TPfaI_12depyler_core11type_mapperNtB4_10TypeMapper3new
FNDA:0,_RNvMs_NtCsj61Gn7TPfaI_12depyler_core11type_mapperNtB4_10TypeMapper8can_copy
FNDA:3,_RNvMs_NtCsj61Gn7TPfaI_12depyler_core11type_mapperNtB4_10TypeMapper8map_type
FNDA:0,_RNvMs_NtCsj61Gn7TPfaI_12depyler_core11type_mapperNtB4_10TypeMapper8with_i64
FNDA:7,_RNvXNtCsj61Gn7TPfaI_12depyler_core11type_mapperNtB2_10TypeMapperNtNtCs9sjCchOt1K7_4core7default7Default7default
FNF:26
FNH:26
DA:69,44
DA:70,44
DA:71,44
DA:72,44
DA:73,44
DA:74,44
DA:78,13
DA:79,13
DA:80,13
DA:82,2
DA:83,2
DA:84,2
DA:85,2
DA:87,1
DA:88,1
DA:89,1
DA:90,1
DA:92,39
DA:93,39
DA:94,1
DA:95,24
DA:96,22
DA:97,1
DA:98,1
DA:100,1
DA:101,4
DA:102,4
DA:103,0
DA:104,0
DA:106,2
DA:107,1
DA:108,1
DA:109,1
DA:110,1
DA:112,1
DA:113,3
DA:114,1
DA:116,1
DA:119,1
DA:121,1
DA:123,39
DA:125,8
DA:126,8
DA:127,1
DA:128,7
DA:130,8
DA:132,14
DA:133,14
DA:134,1
DA:135,2
DA:136,11
DA:137,0
DA:139,14
DA:142,10
DA:143,10
DA:144,5
DA:145,4
DA:146,3
DA:148,10
DA:152,15
DA:153,15
DA:154,4
DA:155,4
DA:156,0
DA:157,0
DA:158,0
DA:160,0
DA:163,0
DA:164,1
DA:165,1
DA:166,1
DA:168,1
DA:169,0
DA:170,0
DA:173,0
DA:174,0
DA:175,0
DA:177,0
DA:178,0
DA:179,0
DA:181,0
DA:184,2
DA:185,2
DA:186,1
DA:188,2
DA:189,1
DA:192,1
DA:193,1
DA:194,0
DA:196,15
DA:200,25
DA:201,25
DA:202,1
DA:203,0
DA:204,0
DA:205,21
DA:206,1
DA:207,0
DA:208,1
DA:209,0
DA:210,0
DA:211,0
DA:212,0
DA:213,0
DA:214,0
DA:215,0
DA:216,1
DA:218,25
DA:226,1
DA:227,1
DA:228,1
DA:229,1
DA:230,1
DA:233,1
DA:234,1
DA:235,1
DA:237,1
DA:238,1
DA:240,1
DA:241,1
DA:242,1
DA:243,1
DA:246,1
DA:247,1
DA:248,1
DA:249,1
DA:250,1
DA:251,1
DA:252,1
DA:254,1
DA:255,1
DA:256,1
DA:257,1
DA:259,1
DA:261,1
DA:262,1
DA:263,1
DA:264,1
DA:266,1
DA:267,1
DA:270,1
DA:271,1
DA:272,1
DA:273,1
DA:274,1
DA:275,1
DA:277,1
DA:278,1
DA:279,1
DA:280,1
DA:281,1
DA:283,1
DA:284,1
DA:285,1
DA:286,1
DA:287,1
DA:288,1
DA:289,1
DA:292,1
DA:293,1
DA:294,1
DA:295,1
DA:296,1
DA:297,1
DA:298,1
DA:299,1
DA:300,1
DA:303,1
DA:304,1
DA:305,1
DA:306,1
DA:307,1
DA:310,1
DA:311,1
DA:312,1
DA:313,1
DA:314,1
DA:315,1
DA:316,1
DA:317,1
DA:318,1
DA:321,1
DA:322,1
DA:323,1
DA:324,1
DA:325,1
DA:327,1
DA:328,1
DA:329,1
DA:330,1
DA:331,1
DA:333,0
DA:335,1
DA:338,1
DA:339,1
DA:340,1
DA:341,1
DA:343,1
DA:344,1
DA:345,1
DA:346,1
DA:347,1
DA:350,1
DA:351,1
DA:352,1
DA:353,1
DA:354,1
DA:355,1
DA:356,1
DA:357,1
DA:358,1
DA:359,1
DA:360,1
DA:363,1
DA:364,1
DA:365,1
DA:366,1
DA:367,1
DA:368,1
DA:369,1
DA:370,1
DA:371,1
DA:372,1
DA:373,1
DA:376,1
DA:377,1
DA:378,1
DA:379,1
DA:380,1
DA:383,1
DA:384,1
DA:385,1
DA:386,1
DA:387,1
DA:388,1
DA:391,1
DA:392,1
DA:393,1
DA:394,1
DA:395,1
DA:396,1
DA:397,1
DA:399,1
DA:400,1
DA:402,1
DA:403,1
DA:405,1
DA:406,1
DA:407,1
DA:408,1
DA:409,1
DA:411,1
DA:412,1
DA:413,1
DA:414,1
DA:415,1
DA:417,1
DA:418,1
DA:419,1
DA:422,1
DA:423,1
DA:424,1
DA:425,1
DA:426,1
DA:427,1
DA:428,1
DA:431,1
DA:432,1
DA:433,1
DA:434,1
DA:435,1
DA:436,1
DA:437,1
DA:438,1
DA:440,1
DA:441,1
DA:442,1
DA:443,1
DA:445,1
DA:446,1
DA:447,1
DA:449,0
DA:451,1
DA:454,1
DA:455,1
DA:456,1
DA:457,1
DA:458,1
DA:459,1
DA:460,1
DA:462,1
DA:463,1
DA:465,0
DA:467,1
BRF:0
BRH:0
LF:297
LH:266
end_of_record
SF:/home/noah/src/depyler/crates/depyler-mcp/src/error.rs
FN:32,_RNvXNtCshjgNay3hIC6_11depyler_mcp5errorNtNtB4_8protocol8McpErrorINtNtCs9sjCchOt1K7_4core7convert4FromNtB2_15DepylerMcpErrorE4from
FNDA:1,_RNvXNtCshjgNay3hIC6_11depyler_mcp5errorNtNtB4_8protocol8McpErrorINtNtCs9sjCchOt1K7_4core7convert4FromNtB2_15DepylerMcpErrorE4from
FNF:1
FNH:1
DA:32,1
DA:33,1
DA:34,1
DA:35,0
DA:36,0
DA:37,0
DA:38,0
DA:39,1
DA:40,0
DA:41,0
DA:42,0
DA:44,1
DA:45,1
DA:46,1
DA:47,1
BRF:0
BRH:0
LF:15
LH:8
end_of_record
SF:/home/noah/src/depyler/crates/depyler-mcp/src/lib.rs
FN:102,_RNCNvMCshjgNay3hIC6_11depyler_mcpNtB4_9McpClient18transpile_fallback0B4_
FN:95,_RNvMCshjgNay3hIC6_11depyler_mcpNtB2_9McpClient12is_available
FN:90,_RNvMCshjgNay3hIC6_11depyler_mcpNtB2_9McpClient13with_endpoint
FN:99,_RNvMCshjgNay3hIC6_11depyler_mcpNtB2_9McpClient18transpile_fallback
FN:118,_RNvMCshjgNay3hIC6_11depyler_mcpNtB2_9McpClient23transpile_fallback_sync
FN:83,_RNvMCshjgNay3hIC6_11depyler_mcpNtB2_9McpClient3new
FN:127,_RNvXs_CshjgNay3hIC6_11depyler_mcpNtB4_9McpClientNtNtCs9sjCchOt1K7_4core7default7Default7default
FNDA:0,_RNCNvMCshjgNay3hIC6_11depyler_mcpNtB4_9McpClient18transpile_fallback0B4_
FNDA:0,_RNvMCshjgNay3hIC6_11depyler_mcpNtB2_9McpClient12is_available
FNDA:0,_RNvMCshjgNay3hIC6_11depyler_mcpNtB2_9McpClient13with_endpoint
FNDA:0,_RNvMCshjgNay3hIC6_11depyler_mcpNtB2_9McpClient18transpile_fallback
FNDA:0,_RNvMCshjgNay3hIC6_11depyler_mcpNtB2_9McpClient23transpile_fallback_sync
FNDA:0,_RNvMCshjgNay3hIC6_11depyler_mcpNtB2_9McpClient3new
FNDA:0,_RNvXs_CshjgNay3hIC6_11depyler_mcpNtB4_9McpClientNtNtCs9sjCchOt1K7_4core7default7Default7default
FNF:7
FNH:0
DA:83,0
DA:84,0
DA:85,0
DA:86,0
DA:88,0
DA:90,0
DA:91,0
DA:92,0
DA:93,0
DA:95,0
DA:96,0
DA:97,0
DA:99,0
DA:100,0
DA:101,0
DA:102,0
DA:103,0
DA:104,0
DA:105,0
DA:106,0
DA:107,0
DA:108,0
DA:109,0
DA:110,0
DA:111,0
DA:112,0
DA:113,0
DA:114,0
DA:115,0
DA:116,0
DA:118,0
DA:119,0
DA:120,0
DA:121,0
DA:122,0
DA:123,0
DA:127,0
DA:128,0
DA:129,0
BRF:0
BRH:0
LF:40
LH:0
end_of_record
SF:/home/noah/src/depyler/crates/depyler-mcp/src/server.rs
FN:372,_RNCNvMNtCshjgNay3hIC6_11depyler_mcp6serverNtB4_16DepylerMcpServer18count_python_lines0B6_
FN:380,_RNCNvMNtCshjgNay3hIC6_11depyler_mcp6serverNtB4_16DepylerMcpServer18count_python_liness_0B6_
FN:325,_RNvMNtCshjgNay3hIC6_11depyler_mcp6serverNtB2_16DepylerMcpServer13handle_verify
FN:273,_RNvMNtCshjgNay3hIC6_11depyler_mcp6serverNtB2_16DepylerMcpServer14handle_analyze
FN:25,_RNvMNtCshjgNay3hIC6_11depyler_mcp6serverNtB2_16DepylerMcpServer14handle_message
FN:223,_RNvMNtCshjgNay3hIC6_11depyler_mcp6serverNtB2_16DepylerMcpServer16handle_transpile
FN:42,_RNvMNtCshjgNay3hIC6_11depyler_mcp6serverNtB2_16DepylerMcpServer17handle_initialize
FN:177,_RNvMNtCshjgNay3hIC6_11depyler_mcp6serverNtB2_16DepylerMcpServer17handle_tools_call
FN:70,_RNvMNtCshjgNay3hIC6_11depyler_mcp6serverNtB2_16DepylerMcpServer17handle_tools_list
FN:362,_RNvMNtCshjgNay3hIC6_11depyler_mcp6serverNtB2_16DepylerMcpServer18count_python_lines
FN:390,_RNvMNtCshjgNay3hIC6_11depyler_mcp6serverNtB2_16DepylerMcpServer26calculate_complexity_score
FN:18,_RNvMNtCshjgNay3hIC6_11depyler_mcp6serverNtB2_16DepylerMcpServer3new
FN:327,_RNCNCNvMNtCshjgNay3hIC6_11depyler_mcp6serverNtB6_16DepylerMcpServer13handle_verify00B8_
FN:275,_RNCNCNvMNtCshjgNay3hIC6_11depyler_mcp6serverNtB6_16DepylerMcpServer14handle_analyze00B8_
FN:225,_RNCNCNvMNtCshjgNay3hIC6_11depyler_mcp6serverNtB6_16DepylerMcpServer16handle_transpile00B8_
FN:240,_RNCNCNvMNtCshjgNay3hIC6_11depyler_mcp6serverNtB6_16DepylerMcpServer16handle_transpile0s0_0B8_
FN:233,_RNCNCNvMNtCshjgNay3hIC6_11depyler_mcp6serverNtB6_16DepylerMcpServer16handle_transpile0s_0B8_
FN:325,_RNCNvMNtCshjgNay3hIC6_11depyler_mcp6serverNtB4_16DepylerMcpServer13handle_verify0B6_
FN:273,_RNCNvMNtCshjgNay3hIC6_11depyler_mcp6serverNtB4_16DepylerMcpServer14handle_analyze0B6_
FN:25,_RNCNvMNtCshjgNay3hIC6_11depyler_mcp6serverNtB4_16DepylerMcpServer14handle_message0B6_
FN:223,_RNCNvMNtCshjgNay3hIC6_11depyler_mcp6serverNtB4_16DepylerMcpServer16handle_transpile0B6_
FN:42,_RNCNvMNtCshjgNay3hIC6_11depyler_mcp6serverNtB4_16DepylerMcpServer17handle_initialize0B6_
FN:177,_RNCNvMNtCshjgNay3hIC6_11depyler_mcp6serverNtB4_16DepylerMcpServer17handle_tools_call0B6_
FN:70,_RNCNvMNtCshjgNay3hIC6_11depyler_mcp6serverNtB4_16DepylerMcpServer17handle_tools_list0B6_
FN:398,_RNvXs_NtCshjgNay3hIC6_11depyler_mcp6serverNtB4_16DepylerMcpServerNtNtCs9sjCchOt1K7_4core7default7Default7default
FNDA:0,_RNCNvMNtCshjgNay3hIC6_11depyler_mcp6serverNtB4_16DepylerMcpServer18count_python_lines0B6_
FNDA:1,_RNCNvMNtCshjgNay3hIC6_11depyler_mcp6serverNtB4_16DepylerMcpServer18count_python_liness_0B6_
FNDA:1,_RNvMNtCshjgNay3hIC6_11depyler_mcp6serverNtB2_16DepylerMcpServer13handle_verify
FNDA:1,_RNvMNtCshjgNay3hIC6_11depyler_mcp6serverNtB2_16DepylerMcpServer14handle_analyze
FNDA:7,_RNvMNtCshjgNay3hIC6_11depyler_mcp6serverNtB2_16DepylerMcpServer14handle_message
FNDA:1,_RNvMNtCshjgNay3hIC6_11depyler_mcp6serverNtB2_16DepylerMcpServer16handle_transpile
FNDA:1,_RNvMNtCshjgNay3hIC6_11depyler_mcp6serverNtB2_16DepylerMcpServer17handle_initialize
FNDA:4,_RNvMNtCshjgNay3hIC6_11depyler_mcp6serverNtB2_16DepylerMcpServer17handle_tools_call
FNDA:1,_RNvMNtCshjgNay3hIC6_11depyler_mcp6serverNtB2_16DepylerMcpServer17handle_tools_list
FNDA:1,_RNvMNtCshjgNay3hIC6_11depyler_mcp6serverNtB2_16DepylerMcpServer18count_python_lines
FNDA:1,_RNvMNtCshjgNay3hIC6_11depyler_mcp6serverNtB2_16DepylerMcpServer26calculate_complexity_score
FNDA:7,_RNvMNtCshjgNay3hIC6_11depyler_mcp6serverNtB2_16DepylerMcpServer3new
FNDA:0,_RNCNCNvMNtCshjgNay3hIC6_11depyler_mcp6serverNtB6_16DepylerMcpServer13handle_verify00B8_
FNDA:0,_RNCNCNvMNtCshjgNay3hIC6_11depyler_mcp6serverNtB6_16DepylerMcpServer14handle_analyze00B8_
FNDA:0,_RNCNCNvMNtCshjgNay3hIC6_11depyler_mcp6serverNtB6_16DepylerMcpServer16handle_transpile00B8_
FNDA:0,_RNCNCNvMNtCshjgNay3hIC6_11depyler_mcp6serverNtB6_16DepylerMcpServer16handle_transpile0s0_0B8_
FNDA:0,_RNCNCNvMNtCshjgNay3hIC6_11depyler_mcp6serverNtB6_16DepylerMcpServer16handle_transpile0s_0B8_
FNDA:1,_RNCNvMNtCshjgNay3hIC6_11depyler_mcp6serverNtB4_16DepylerMcpServer13handle_verify0B6_
FNDA:1,_RNCNvMNtCshjgNay3hIC6_11depyler_mcp6serverNtB4_16DepylerMcpServer14handle_analyze0B6_
FNDA:7,_RNCNvMNtCshjgNay3hIC6_11depyler_mcp6serverNtB4_16DepylerMcpServer14handle_message0B6_
FNDA:1,_RNCNvMNtCshjgNay3hIC6_11depyler_mcp6serverNtB4_16DepylerMcpServer16handle_transpile0B6_
FNDA:1,_RNCNvMNtCshjgNay3hIC6_11depyler_mcp6serverNtB4_16DepylerMcpServer17handle_initialize0B6_
FNDA:4,_RNCNvMNtCshjgNay3hIC6_11depyler_mcp6serverNtB4_16DepylerMcpServer17handle_tools_call0B6_
FNDA:1,_RNCNvMNtCshjgNay3hIC6_11depyler_mcp6serverNtB4_16DepylerMcpServer17handle_tools_list0B6_
FNDA:0,_RNvXs_NtCshjgNay3hIC6_11depyler_mcp6serverNtB4_16DepylerMcpServerNtNtCs9sjCchOt1K7_4core7default7Default7default
FNF:25
FNH:18
DA:18,7
DA:19,7
DA:20,7
DA:21,7
DA:22,7
DA:23,7
DA:25,7
DA:26,7
DA:27,7
DA:28,6
DA:29,5
DA:30,1
DA:31,1
DA:32,1
DA:33,1
DA:34,1
DA:35,1
DA:36,1
DA:37,1
DA:38,1
DA:40,7
DA:42,1
DA:43,1
DA:44,1
DA:45,1
DA:46,1
DA:47,1
DA:48,1
DA:49,1
DA:50,1
DA:51,1
DA:52,1
DA:53,1
DA:54,1
DA:55,1
DA:56,1
DA:57,1
DA:58,1
DA:59,1
DA:60,1
DA:61,1
DA:62,1
DA:63,1
DA:64,1
DA:65,1
DA:66,1
DA:67,1
DA:68,1
DA:70,1
DA:71,1
DA:72,1
DA:73,1
DA:74,1
DA:75,1
DA:76,1
DA:77,1
DA:78,1
DA:79,1
DA:80,1
DA:81,1
DA:82,1
DA:83,1
DA:84,1
DA:85,1
DA:86,1
DA:87,1
DA:88,1
DA:89,1
DA:90,1
DA:91,1
DA:92,1
DA:93,1
DA:94,1
DA:95,1
DA:96,1
DA:97,1
DA:98,1
DA:99,1
DA:100,1
DA:101,1
DA:102,1
DA:103,1
DA:104,1
DA:105,1
DA:106,1
DA:107,1
DA:108,1
DA:109,1
DA:110,1
DA:111,1
DA:112,1
DA:113,1
DA:114,1
DA:115,1
DA:116,1
DA:117,1
DA:118,1
DA:119,1
DA:120,1
DA:121,1
DA:122,1
DA:123,1
DA:124,1
DA:125,1
DA:126,1
DA:127,1
DA:128,1
DA:129,1
DA:130,1
DA:131,1
DA:132,1
DA:133,1
DA:134,1
DA:135,1
DA:136,1
DA:137,1
DA:138,1
DA:139,1
DA:140,1
DA:141,1
DA:142,1
DA:143,1
DA:144,1
DA:145,1
DA:146,1
DA:147,1
DA:148,1
DA:149,1
DA:150,1
DA:151,1
DA:152,1
DA:153,1
DA:154,1
DA:155,1
DA:156,1
DA:157,1
DA:158,1
DA:159,1
DA:160,1
DA:161,1
DA:162,1
DA:163,1
DA:164,1
DA:165,1
DA:166,1
DA:167,1
DA:168,1
DA:169,1
DA:170,1
DA:171,1
DA:172,1
DA:173,1
DA:174,1
DA:175,1
DA:177,4
DA:178,4
DA:179,4
DA:180,0
DA:181,0
DA:182,0
DA:183,0
DA:184,0
DA:185,0
DA:186,0
DA:187,0
DA:188,0
DA:189,0
DA:193,4
DA:194,4
DA:195,1
DA:197,3
DA:198,1
DA:200,2
DA:201,1
DA:203,1
DA:204,1
DA:205,1
DA:206,1
DA:209,4
DA:210,3
DA:211,3
DA:212,3
DA:213,3
DA:214,3
DA:215,1
DA:216,1
DA:217,1
DA:218,1
DA:219,1
DA:221,4
DA:223,1
DA:224,1
DA:225,1
DA:227,1
DA:229,1
DA:230,1
DA:232,0
DA:233,0
DA:238,0
DA:239,0
DA:240,0
DA:244,1
DA:245,1
DA:246,0
DA:247,0
DA:249,0
DA:253,1
DA:254,1
DA:255,1
DA:256,1
DA:257,1
DA:258,1
DA:260,1
DA:261,1
DA:262,1
DA:263,1
DA:264,1
DA:265,1
DA:266,0
DA:270,1
DA:271,1
DA:273,1
DA:274,1
DA:275,1
DA:277,1
DA:280,1
DA:281,1
DA:282,1
DA:283,1
DA:284,1
DA:285,1
DA:286,1
DA:287,1
DA:288,1
DA:289,1
DA:290,1
DA:291,1
DA:292,1
DA:293,1
DA:294,1
DA:295,1
DA:296,1
DA:297,1
DA:298,1
DA:299,1
DA:300,1
DA:301,1
DA:302,1
DA:303,1
DA:304,1
DA:305,1
DA:306,1
DA:307,1
DA:308,1
DA:309,1
DA:310,1
DA:311,1
DA:312,1
DA:313,1
DA:314,1
DA:315,1
DA:316,1
DA:317,1
DA:318,1
DA:319,1
DA:320,1
DA:321,1
DA:322,1
DA:323,1
DA:325,1
DA:326,1
DA:327,1
DA:329,1
DA:332,1
DA:334,1
DA:335,1
DA:336,1
DA:338,1
DA:339,1
DA:342,1
DA:343,1
DA:344,1
DA:345,1
DA:346,1
DA:347,1
DA:348,1
DA:349,1
DA:350,1
DA:351,1
DA:352,1
DA:353,1
DA:355,0
DA:359,1
DA:360,1
DA:362,1
DA:363,1
DA:364,1
DA:365,0
DA:366,0
DA:367,0
DA:368,0
DA:369,1
DA:370,1
DA:371,1
DA:372,1
DA:373,0
DA:374,0
DA:375,1
DA:377,1
DA:378,1
DA:379,1
DA:380,1
DA:381,1
DA:382,1
DA:383,0
DA:385,0
DA:387,1
DA:388,1
DA:390,1
DA:391,1
DA:392,1
DA:393,1
DA:394,1
DA:398,0
DA:399,0
DA:400,0
BRF:0
BRH:0
LF:340
LH:303
end_of_record
SF:/home/noah/src/depyler/crates/depyler-mcp/src/tests.rs
FN:44,_RNCNCNvNtCshjgNay3hIC6_11depyler_mcp5testss_15test_tools_list00B7_
FN:7,_RNCNvNtCshjgNay3hIC6_11depyler_mcp5testss_15test_initialize0B5_
FN:26,_RNCNvNtCshjgNay3hIC6_11depyler_mcp5testss_15test_tools_list0B5_
FN:154,_RNCNvNtCshjgNay3hIC6_11depyler_mcp5testss_19test_invalid_method0B5_
FN:137,_RNCNvNtCshjgNay3hIC6_11depyler_mcp5testss_22test_invalid_tool_call0B5_
FN:111,_RNCNvNtCshjgNay3hIC6_11depyler_mcp5testss_25test_verify_transpilation0B5_
FN:52,_RNCNvNtCshjgNay3hIC6_11depyler_mcp5testss_28test_transpile_python_inline0B5_
FN:77,_RNCNvNtCshjgNay3hIC6_11depyler_mcp5testss_33test_analyze_migration_complexity0B5_
FN:7,_RNvNtCshjgNay3hIC6_11depyler_mcp5testss_15test_initialize
FN:26,_RNvNtCshjgNay3hIC6_11depyler_mcp5testss_15test_tools_list
FN:154,_RNvNtCshjgNay3hIC6_11depyler_mcp5testss_19test_invalid_method
FN:137,_RNvNtCshjgNay3hIC6_11depyler_mcp5testss_22test_invalid_tool_call
FN:111,_RNvNtCshjgNay3hIC6_11depyler_mcp5testss_25test_verify_transpilation
FN:52,_RNvNtCshjgNay3hIC6_11depyler_mcp5testss_28test_transpile_python_inline
FN:77,_RNvNtCshjgNay3hIC6_11depyler_mcp5testss_33test_analyze_migration_complexity
FN:196,_RNvNtCshjgNay3hIC6_11depyler_mcp5testss_35test_verify_request_deserialization
FN:184,_RNvNtCshjgNay3hIC6_11depyler_mcp5testss_36test_analyze_request_deserialization
FN:168,_RNvNtCshjgNay3hIC6_11depyler_mcp5testss_38test_transpile_request_deserialization
FNDA:3,_RNCNCNvNtCshjgNay3hIC6_11depyler_mcp5testss_15test_tools_list00B7_
FNDA:1,_RNCNvNtCshjgNay3hIC6_11depyler_mcp5testss_15test_initialize0B5_
FNDA:1,_RNCNvNtCshjgNay3hIC6_11depyler_mcp5testss_15test_tools_list0B5_
FNDA:1,_RNCNvNtCshjgNay3hIC6_11depyler_mcp5testss_19test_invalid_method0B5_
FNDA:1,_RNCNvNtCshjgNay3hIC6_11depyler_mcp5testss_22test_invalid_tool_call0B5_
FNDA:1,_RNCNvNtCshjgNay3hIC6_11depyler_mcp5testss_25test_verify_transpilation0B5_
FNDA:1,_RNCNvNtCshjgNay3hIC6_11depyler_mcp5testss_28test_transpile_python_inline0B5_
FNDA:1,_RNCNvNtCshjgNay3hIC6_11depyler_mcp5testss_33test_analyze_migration_complexity0B5_
FNDA:1,_RNvNtCshjgNay3hIC6_11depyler_mcp5testss_15test_initialize
FNDA:1,_RNvNtCshjgNay3hIC6_11depyler_mcp5testss_15test_tools_list
FNDA:1,_RNvNtCshjgNay3hIC6_11depyler_mcp5testss_19test_invalid_method
FNDA:1,_RNvNtCshjgNay3hIC6_11depyler_mcp5testss_22test_invalid_tool_call
FNDA:1,_RNvNtCshjgNay3hIC6_11depyler_mcp5testss_25test_verify_transpilation
FNDA:1,_RNvNtCshjgNay3hIC6_11depyler_mcp5testss_28test_transpile_python_inline
FNDA:1,_RNvNtCshjgNay3hIC6_11depyler_mcp5testss_33test_analyze_migration_complexity
FNDA:1,_RNvNtCshjgNay3hIC6_11depyler_mcp5testss_35test_verify_request_deserialization
FNDA:1,_RNvNtCshjgNay3hIC6_11depyler_mcp5testss_36test_analyze_request_deserialization
FNDA:1,_RNvNtCshjgNay3hIC6_11depyler_mcp5testss_38test_transpile_request_deserialization
FNF:18
FNH:18
DA:7,1
DA:8,1
DA:9,1
DA:10,1
DA:11,1
DA:12,1
DA:13,1
DA:14,1
DA:15,1
DA:16,1
DA:17,1
DA:18,1
DA:19,1
DA:20,1
DA:21,1
DA:22,1
DA:23,1
DA:26,1
DA:27,1
DA:28,1
DA:29,1
DA:30,1
DA:31,1
DA:32,1
DA:33,1
DA:34,1
DA:35,1
DA:36,1
DA:37,1
DA:38,1
DA:39,1
DA:40,1
DA:41,1
DA:42,1
DA:43,1
DA:44,3
DA:45,1
DA:46,1
DA:47,1
DA:48,1
DA:49,1
DA:52,1
DA:53,1
DA:54,1
DA:55,1
DA:56,1
DA:57,1
DA:58,1
DA:59,1
DA:60,1
DA:61,1
DA:62,1
DA:63,1
DA:64,1
DA:65,1
DA:66,1
DA:67,1
DA:68,1
DA:69,1
DA:70,1
DA:71,1
DA:72,1
DA:73,1
DA:74,1
DA:77,1
DA:78,1
DA:79,1
DA:80,1
DA:81,1
DA:82,1
DA:83,1
DA:84,1
DA:85,1
DA:86,1
DA:87,1
DA:88,1
DA:89,1
DA:90,1
DA:91,1
DA:92,1
DA:93,1
DA:94,1
DA:95,1
DA:96,1
DA:97,1
DA:98,1
DA:99,1
DA:100,1
DA:101,1
DA:102,1
DA:103,1
DA:104,1
DA:105,1
DA:106,1
DA:107,1
DA:108,1
DA:111,1
DA:112,1
DA:113,1
DA:114,1
DA:115,1
DA:116,1
DA:117,1
DA:118,1
DA:119,1
DA:120,1
DA:121,1
DA:122,1
DA:123,1
DA:124,1
DA:125,1
DA:126,1
DA:127,1
DA:128,1
DA:129,1
DA:130,1
DA:131,1
DA:132,1
DA:133,1
DA:134,1
DA:137,1
DA:138,1
DA:139,1
DA:140,1
DA:141,1
DA:142,1
DA:143,1
DA:144,1
DA:145,1
DA:146,1
DA:147,1
DA:148,1
DA:149,1
DA:150,1
DA:151,1
DA:154,1
DA:155,1
DA:156,1
DA:157,1
DA:158,1
DA:159,1
DA:160,1
DA:161,1
DA:162,1
DA:163,1
DA:164,1
DA:165,1
DA:168,1
DA:169,1
DA:170,1
DA:171,1
DA:172,1
DA:173,1
DA:174,1
DA:175,1
DA:176,1
DA:177,1
DA:178,1
DA:179,1
DA:180,1
DA:181,1
DA:184,1
DA:185,1
DA:186,1
DA:187,1
DA:188,1
DA:189,1
DA:190,1
DA:191,1
DA:192,1
DA:193,1
DA:196,1
DA:197,1
DA:198,1
DA:199,1
DA:200,1
DA:201,1
DA:202,1
DA:203,1
DA:204,1
DA:205,1
DA:206,1
DA:207,1
BRF:0
BRH:0
LF:309
LH:309
end_of_record
SF:/home/noah/src/depyler/crates/depyler-mcp/src/tools.rs
FN:21,_RNvNtCshjgNay3hIC6_11depyler_mcp5tools12default_mode
FN:70,_RNvNtCshjgNay3hIC6_11depyler_mcp5tools20default_memory_model
FN:44,_RNvNtCshjgNay3hIC6_11depyler_mcp5tools20default_optimization
FN:117,_RNvNtCshjgNay3hIC6_11depyler_mcp5tools22default_analysis_depth
FN:57,_RNvNtCshjgNay3hIC6_11depyler_mcp5tools22default_type_inference
FN:121,_RNvNtCshjgNay3hIC6_11depyler_mcp5tools24default_include_patterns
FN:199,_RNvNtCshjgNay3hIC6_11depyler_mcp5tools26default_verification_level
FN:75,_RNvXNtCshjgNay3hIC6_11depyler_mcp5toolsNtB2_16TranspileOptionsNtNtCs9sjCchOt1K7_4core7default7Default7default
FNDA:0,_RNvNtCshjgNay3hIC6_11depyler_mcp5tools12default_mode
FNDA:2,_RNvNtCshjgNay3hIC6_11depyler_mcp5tools20default_memory_model
FNDA:1,_RNvNtCshjgNay3hIC6_11depyler_mcp5tools20default_optimization
FNDA:1,_RNvNtCshjgNay3hIC6_11depyler_mcp5tools22default_analysis_depth
FNDA:1,_RNvNtCshjgNay3hIC6_11depyler_mcp5tools22default_type_inference
FNDA:2,_RNvNtCshjgNay3hIC6_11depyler_mcp5tools24default_include_patterns
FNDA:1,_RNvNtCshjgNay3hIC6_11depyler_mcp5tools26default_verification_level
FNDA:1,_RNvXNtCshjgNay3hIC6_11depyler_mcp5toolsNtB2_16TranspileOptionsNtNtCs9sjCchOt1K7_4core7default7Default7default
FNF:8
FNH:7
DA:21,0
DA:22,0
DA:23,0
DA:44,1
DA:45,1
DA:46,1
DA:57,1
DA:58,1
DA:59,1
DA:70,2
DA:71,2
DA:72,2
DA:75,1
DA:76,1
DA:77,1
DA:78,1
DA:79,1
DA:80,1
DA:81,1
DA:117,1
DA:118,1
DA:119,1
DA:121,2
DA:122,2
DA:123,2
DA:199,1
DA:200,1
DA:201,1
BRF:0
BRH:0
LF:28
LH:25
end_of_record
SF:/home/noah/src/depyler/crates/depyler-mcp/src/validator.rs
FN:59,_RNCNvMs_NtCshjgNay3hIC6_11depyler_mcp9validatorNtB6_12McpValidator16check_complexity0B8_
FN:31,_RNCNvMs_NtCshjgNay3hIC6_11depyler_mcp9validatorNtB6_12McpValidator17validate_response0B8_
FN:56,_RNvMs_NtCshjgNay3hIC6_11depyler_mcp9validatorNtB4_12McpValidator16check_complexity
FN:65,_RNvMs_NtCshjgNay3hIC6_11depyler_mcp9validatorNtB4_12McpValidator16estimate_nesting
FN:80,_RNvMs_NtCshjgNay3hIC6_11depyler_mcp9validatorNtB4_12McpValidator17score_explanation
FN:28,_RNvMs_NtCshjgNay3hIC6_11depyler_mcp9validatorNtB4_12McpValidator17validate_response
FN:24,_RNvMs_NtCshjgNay3hIC6_11depyler_mcp9validatorNtB4_12McpValidator3new
FN:18,_RNvXNtCshjgNay3hIC6_11depyler_mcp9validatorNtB2_12McpValidatorNtNtCs9sjCchOt1K7_4core7default7Default7default
FNDA:0,_RNCNvMs_NtCshjgNay3hIC6_11depyler_mcp9validatorNtB6_12McpValidator16check_complexity0B8_
FNDA:0,_RNCNvMs_NtCshjgNay3hIC6_11depyler_mcp9validatorNtB6_12McpValidator17validate_response0B8_
FNDA:0,_RNvMs_NtCshjgNay3hIC6_11depyler_mcp9validatorNtB4_12McpValidator16check_complexity
FNDA:0,_RNvMs_NtCshjgNay3hIC6_11depyler_mcp9validatorNtB4_12McpValidator16estimate_nesting
FNDA:0,_RNvMs_NtCshjgNay3hIC6_11depyler_mcp9validatorNtB4_12McpValidator17score_explanation
FNDA:0,_RNvMs_NtCshjgNay3hIC6_11depyler_mcp9validatorNtB4_12McpValidator17validate_response
FNDA:0,_RNvMs_NtCshjgNay3hIC6_11depyler_mcp9validatorNtB4_12McpValidator3new
FNDA:0,_RNvXNtCshjgNay3hIC6_11depyler_mcp9validatorNtB2_12McpValidatorNtNtCs9sjCchOt1K7_4core7default7Default7default
FNF:8
FNH:0
DA:18,0
DA:19,0
DA:20,0
DA:24,0
DA:25,0
DA:26,0
DA:28,0
DA:29,0
DA:30,0
DA:31,0
DA:32,0
DA:33,0
DA:34,0
DA:35,0
DA:36,0
DA:39,0
DA:42,0
DA:45,0
DA:46,0
DA:47,0
DA:48,0
DA:49,0
DA:50,0
DA:51,0
DA:52,0
DA:53,0
DA:54,0
DA:56,0
DA:57,0
DA:58,0
DA:59,0
DA:60,0
DA:61,0
DA:62,0
DA:63,0
DA:65,0
DA:66,0
DA:67,0
DA:69,0
DA:70,0
DA:71,0
DA:72,0
DA:73,0
DA:74,0
DA:75,0
DA:77,0
DA:78,0
DA:80,0
DA:81,0
DA:82,0
DA:83,0
DA:84,0
DA:85,0
DA:86,0
DA:88,0
DA:89,0
DA:90,0
DA:91,0
DA:92,0
DA:93,0
DA:94,0
DA:95,0
DA:96,0
DA:97,0
DA:98,0
DA:100,0
DA:101,0
BRF:0
BRH:0
LF:69
LH:0
end_of_record
SF:/home/noah/src/depyler/crates/depyler-verify/src/contracts.rs
FN:21,_RNvMNtCs2c0K1t7ZGHn_14depyler_verify9contractsNtB2_15ContractChecker17extract_contracts
FN:84,_RNvMNtCs2c0K1t7ZGHn_14depyler_verify9contractsNtB2_15ContractChecker24generate_contract_checks
FN:118,_RNvMNtCs2c0K1t7ZGHn_14depyler_verify9contractsNtB2_15ContractChecker25check_contract_violations
FN:176,_RNvNtCs2c0K1t7ZGHn_14depyler_verify9contracts20check_expr_contracts
FN:130,_RNvNtCs2c0K1t7ZGHn_14depyler_verify9contracts20check_stmt_contracts
FNDA:0,_RNvMNtCs2c0K1t7ZGHn_14depyler_verify9contractsNtB2_15ContractChecker17extract_contracts
FNDA:0,_RNvMNtCs2c0K1t7ZGHn_14depyler_verify9contractsNtB2_15ContractChecker24generate_contract_checks
FNDA:0,_RNvMNtCs2c0K1t7ZGHn_14depyler_verify9contractsNtB2_15ContractChecker25check_contract_violations
FNDA:0,_RNvNtCs2c0K1t7ZGHn_14depyler_verify9contracts20check_expr_contracts
FNDA:0,_RNvNtCs2c0K1t7ZGHn_14depyler_verify9contracts20check_stmt_contracts
FNF:5
FNH:0
DA:21,0
DA:22,0
DA:23,0
DA:24,0
DA:25,0
DA:26,0
DA:29,0
DA:30,0
DA:31,0
DA:32,0
DA:33,0
DA:34,0
DA:35,0
DA:36,0
DA:37,0
DA:38,0
DA:39,0
DA:40,0
DA:41,0
DA:46,0
DA:47,0
DA:48,0
DA:49,0
DA:50,0
DA:51,0
DA:52,0
DA:53,0
DA:54,0
DA:55,0
DA:56,0
DA:57,0
DA:58,0
DA:59,0
DA:60,0
DA:61,0
DA:65,0
DA:66,0
DA:67,0
DA:68,0
DA:69,0
DA:70,0
DA:71,0
DA:73,0
DA:74,0
DA:75,0
DA:76,0
DA:77,0
DA:78,0
DA:79,0
DA:81,0
DA:82,0
DA:84,0
DA:85,0
DA:86,0
DA:87,0
DA:88,0
DA:89,0
DA:90,0
DA:92,0
DA:93,0
DA:94,0
DA:95,0
DA:97,0
DA:98,0
DA:99,0
DA:102,0
DA:103,0
DA:104,0
DA:106,0
DA:107,0
DA:108,0
DA:109,0
DA:111,0
DA:112,0
DA:113,0
DA:115,0
DA:116,0
DA:118,0
DA:119,0
DA:122,0
DA:123,0
DA:124,0
DA:126,0
DA:127,0
DA:130,0
DA:131,0
DA:133,0
DA:134,0
DA:135,0
DA:136,0
DA:137,0
DA:138,0
DA:139,0
DA:141,0
DA:142,0
DA:143,0
DA:144,0
DA:145,0
DA:146,0
DA:147,0
DA:148,0
DA:149,0
DA:150,0
DA:151,0
DA:152,0
DA:153,0
DA:155,0
DA:156,0
DA:157,0
DA:158,0
DA:159,0
DA:161,0
DA:162,0
DA:163,0
DA:164,0
DA:165,0
DA:167,0
DA:168,0
DA:169,0
DA:170,0
DA:173,0
DA:174,0
DA:176,0
DA:177,0
DA:178,0
DA:179,0
DA:180,0
DA:181,0
DA:182,0
DA:183,0
DA:184,0
DA:185,0
DA:186,0
DA:187,0
DA:188,0
DA:189,0
DA:190,0
DA:191,0
DA:192,0
DA:194,0
DA:197,0
DA:198,0
BRF:0
BRH:0
LF:142
LH:0
end_of_record
SF:/home/noah/src/depyler/crates/depyler-verify/src/lib.rs
FN:120,_RNCNvMs_Cs2c0K1t7ZGHn_14depyler_verifyNtB6_16PropertyVerifier24verify_type_preservation0B6_
FN:71,_RNvMs_Cs2c0K1t7ZGHn_14depyler_verifyNtB4_16PropertyVerifier15verify_function
FN:66,_RNvMs_Cs2c0K1t7ZGHn_14depyler_verifyNtB4_16PropertyVerifier15with_iterations
FN:141,_RNvMs_Cs2c0K1t7ZGHn_14depyler_verifyNtB4_16PropertyVerifier23generate_property_tests
FN:115,_RNvMs_Cs2c0K1t7ZGHn_14depyler_verifyNtB4_16PropertyVerifier24verify_type_preservation
FN:62,_RNvMs_Cs2c0K1t7ZGHn_14depyler_verifyNtB4_16PropertyVerifier3new
FN:52,_RNvXCs2c0K1t7ZGHn_14depyler_verifyNtB2_16PropertyVerifierNtNtCs9sjCchOt1K7_4core7default7Default7default
FNDA:0,_RNCNvMs_Cs2c0K1t7ZGHn_14depyler_verifyNtB6_16PropertyVerifier24verify_type_preservation0B6_
FNDA:0,_RNvMs_Cs2c0K1t7ZGHn_14depyler_verifyNtB4_16PropertyVerifier15verify_function
FNDA:0,_RNvMs_Cs2c0K1t7ZGHn_14depyler_verifyNtB4_16PropertyVerifier15with_iterations
FNDA:0,_RNvMs_Cs2c0K1t7ZGHn_14depyler_verifyNtB4_16PropertyVerifier23generate_property_tests
FNDA:0,_RNvMs_Cs2c0K1t7ZGHn_14depyler_verifyNtB4_16PropertyVerifier24verify_type_preservation
FNDA:0,_RNvMs_Cs2c0K1t7ZGHn_14depyler_verifyNtB4_16PropertyVerifier3new
FNDA:0,_RNvXCs2c0K1t7ZGHn_14depyler_verifyNtB2_16PropertyVerifierNtNtCs9sjCchOt1K7_4core7default7Default7default
FNF:7
FNH:0
DA:52,0
DA:53,0
DA:54,0
DA:55,0
DA:56,0
DA:57,0
DA:58,0
DA:62,0
DA:63,0
DA:64,0
DA:66,0
DA:67,0
DA:68,0
DA:69,0
DA:71,0
DA:72,0
DA:75,0
DA:76,0
DA:77,0
DA:80,0
DA:81,0
DA:82,0
DA:83,0
DA:84,0
DA:85,0
DA:86,0
DA:87,0
DA:88,0
DA:91,0
DA:92,0
DA:93,0
DA:94,0
DA:95,0
DA:96,0
DA:97,0
DA:98,0
DA:99,0
DA:102,0
DA:103,0
DA:104,0
DA:105,0
DA:106,0
DA:107,0
DA:108,0
DA:109,0
DA:110,0
DA:112,0
DA:113,0
DA:115,0
DA:116,0
DA:117,0
DA:118,0
DA:119,0
DA:120,0
DA:121,0
DA:122,0
DA:123,0
DA:124,0
DA:125,0
DA:126,0
DA:127,0
DA:128,0
DA:129,0
DA:131,0
DA:132,0
DA:133,0
DA:134,0
DA:135,0
DA:136,0
DA:137,0
DA:139,0
DA:141,0
DA:142,0
DA:143,0
DA:144,0
BRF:0
BRH:0
LF:76
LH:0
end_of_record
SF:/home/noah/src/depyler/crates/depyler-verify/src/properties.rs
FN:39,_RNCNvNtCs2c0K1t7ZGHn_14depyler_verify10properties17has_numeric_types0B5_
FN:43,_RNCNvNtCs2c0K1t7ZGHn_14depyler_verify10properties20has_container_params0B5_
FN:181,_RNCNvNtCs2c0K1t7ZGHn_14depyler_verify10properties25generate_termination_test0B5_
FN:189,_RNCNvNtCs2c0K1t7ZGHn_14depyler_verify10properties25generate_termination_tests_0B5_
FN:119,_RNCNvNtCs2c0K1t7ZGHn_14depyler_verify10properties29generate_bounds_property_test0B5_
FN:146,_RNCNvNtCs2c0K1t7ZGHn_14depyler_verify10properties29generate_bounds_property_tests_0B5_
FN:57,_RNCNvNtCs2c0K1t7ZGHn_14depyler_verify10properties30generate_numeric_property_test0B5_
FN:88,_RNCNvNtCs2c0K1t7ZGHn_14depyler_verify10properties30generate_numeric_property_tests_0B5_
FN:36,_RNvNtCs2c0K1t7ZGHn_14depyler_verify10properties17has_numeric_types
FN:200,_RNvNtCs2c0K1t7ZGHn_14depyler_verify10properties19type_to_rust_string
FN:42,_RNvNtCs2c0K1t7ZGHn_14depyler_verify10properties20has_container_params
FN:4,_RNvNtCs2c0K1t7ZGHn_14depyler_verify10properties25generate_quickcheck_tests
FN:166,_RNvNtCs2c0K1t7ZGHn_14depyler_verify10properties25generate_termination_test
FN:108,_RNvNtCs2c0K1t7ZGHn_14depyler_verify10properties29generate_bounds_property_test
FN:46,_RNvNtCs2c0K1t7ZGHn_14depyler_verify10properties30generate_numeric_property_test
FNDA:0,_RNCNvNtCs2c0K1t7ZGHn_14depyler_verify10properties17has_numeric_types0B5_
FNDA:0,_RNCNvNtCs2c0K1t7ZGHn_14depyler_verify10properties20has_container_params0B5_
FNDA:0,_RNCNvNtCs2c0K1t7ZGHn_14depyler_verify10properties25generate_termination_test0B5_
FNDA:0,_RNCNvNtCs2c0K1t7ZGHn_14depyler_verify10properties25generate_termination_tests_0B5_
FNDA:0,_RNCNvNtCs2c0K1t7ZGHn_14depyler_verify10properties29generate_bounds_property_test0B5_
FNDA:0,_RNCNvNtCs2c0K1t7ZGHn_14depyler_verify10properties29generate_bounds_property_tests_0B5_
FNDA:0,_RNCNvNtCs2c0K1t7ZGHn_14depyler_verify10properties30generate_numeric_property_test0B5_
FNDA:0,_RNCNvNtCs2c0K1t7ZGHn_14depyler_verify10properties30generate_numeric_property_tests_0B5_
FNDA:0,_RNvNtCs2c0K1t7ZGHn_14depyler_verify10properties17has_numeric_types
FNDA:0,_RNvNtCs2c0K1t7ZGHn_14depyler_verify10properties19type_to_rust_string
FNDA:0,_RNvNtCs2c0K1t7ZGHn_14depyler_verify10properties20has_container_params
FNDA:0,_RNvNtCs2c0K1t7ZGHn_14depyler_verify10properties25generate_quickcheck_tests
FNDA:0,_RNvNtCs2c0K1t7ZGHn_14depyler_verify10properties25generate_termination_test
FNDA:0,_RNvNtCs2c0K1t7ZGHn_14depyler_verify10properties29generate_bounds_property_test
FNDA:0,_RNvNtCs2c0K1t7ZGHn_14depyler_verify10properties30generate_numeric_property_test
FNF:15
FNH:0
DA:4,0
DA:5,0
DA:6,0
DA:7,0
DA:8,0
DA:9,0
DA:10,0
DA:11,0
DA:12,0
DA:13,0
DA:14,0
DA:15,0
DA:16,0
DA:17,0
DA:18,0
DA:19,0
DA:22,0
DA:23,0
DA:24,0
DA:27,0
DA:28,0
DA:29,0
DA:31,0
DA:32,0
DA:33,0
DA:34,0
DA:36,0
DA:37,0
DA:38,0
DA:39,0
DA:40,0
DA:42,0
DA:43,0
DA:44,0
DA:46,0
DA:47,0
DA:48,0
DA:49,0
DA:50,0
DA:51,0
DA:52,0
DA:53,0
DA:54,0
DA:55,0
DA:56,0
DA:57,0
DA:58,0
DA:59,0
DA:60,0
DA:61,0
DA:62,0
DA:64,0
DA:66,0
DA:67,0
DA:68,0
DA:69,0
DA:70,0
DA:71,0
DA:72,0
DA:73,0
DA:74,0
DA:75,0
DA:76,0
DA:77,0
DA:78,0
DA:79,0
DA:80,0
DA:84,0
DA:85,0
DA:86,0
DA:87,0
DA:88,0
DA:89,0
DA:90,0
DA:92,0
DA:94,0
DA:95,0
DA:96,0
DA:97,0
DA:98,0
DA:99,0
DA:100,0
DA:101,0
DA:102,0
DA:103,0
DA:104,0
DA:105,0
DA:106,0
DA:108,0
DA:109,0
DA:110,0
DA:111,0
DA:112,0
DA:113,0
DA:114,0
DA:115,0
DA:116,0
DA:117,0
DA:118,0
DA:119,0
DA:120,0
DA:121,0
DA:122,0
DA:124,0
DA:125,0
DA:126,0
DA:127,0
DA:128,0
DA:129,0
DA:132,0
DA:133,0
DA:134,0
DA:135,0
DA:136,0
DA:137,0
DA:138,0
DA:142,0
DA:143,0
DA:144,0
DA:145,0
DA:146,0
DA:147,0
DA:148,0
DA:150,0
DA:152,0
DA:153,0
DA:154,0
DA:155,0
DA:156,0
DA:157,0
DA:158,0
DA:159,0
DA:160,0
DA:161,0
DA:162,0
DA:163,0
DA:164,0
DA:166,0
DA:167,0
DA:168,0
DA:169,0
DA:170,0
DA:171,0
DA:172,0
DA:173,0
DA:174,0
DA:175,0
DA:176,0
DA:177,0
DA:178,0
DA:179,0
DA:180,0
DA:181,0
DA:182,0
DA:183,0
DA:184,0
DA:185,0
DA:186,0
DA:187,0
DA:188,0
DA:189,0
DA:190,0
DA:191,0
DA:192,0
DA:193,0
DA:194,0
DA:195,0
DA:196,0
DA:197,0
DA:198,0
DA:200,0
DA:201,0
DA:202,0
DA:203,0
DA:204,0
DA:205,0
DA:206,0
DA:207,0
DA:208,0
DA:209,0
DA:210,0
DA:211,0
DA:212,0
DA:213,0
DA:214,0
DA:216,0
BRF:0
BRH:0
LF:199
LH:0
end_of_record
SF:/home/noah/src/depyler/crates/depyler-verify/src/quickcheck.rs
FN:33,_RNCNvMNtCs2c0K1t7ZGHn_14depyler_verify10quickcheckNtB4_10TypedValue18arbitrary_for_type0B6_
FN:70,_RNCNvMNtCs2c0K1t7ZGHn_14depyler_verify10quickcheckNtB4_10TypedValue18arbitrary_for_types_0B6_
FN:10,_RNvMNtCs2c0K1t7ZGHn_14depyler_verify10quickcheckNtB2_10TypedValue18arbitrary_for_type
FN:84,_RNvNtCs2c0K1t7ZGHn_14depyler_verify10quickcheck12shrink_value
FNDA:0,_RNCNvMNtCs2c0K1t7ZGHn_14depyler_verify10quickcheckNtB4_10TypedValue18arbitrary_for_type0B6_
FNDA:0,_RNCNvMNtCs2c0K1t7ZGHn_14depyler_verify10quickcheckNtB4_10TypedValue18arbitrary_for_types_0B6_
FNDA:0,_RNvMNtCs2c0K1t7ZGHn_14depyler_verify10quickcheckNtB2_10TypedValue18arbitrary_for_type
FNDA:0,_RNvNtCs2c0K1t7ZGHn_14depyler_verify10quickcheck12shrink_value
FNF:4
FNH:0
DA:10,0
DA:11,0
DA:13,0
DA:14,0
DA:17,0
DA:18,0
DA:21,0
DA:22,0
DA:25,0
DA:26,0
DA:28,0
DA:29,0
DA:30,0
DA:31,0
DA:32,0
DA:33,0
DA:34,0
DA:35,0
DA:37,0
DA:38,0
DA:39,0
DA:40,0
DA:42,0
DA:43,0
DA:45,0
DA:46,0
DA:49,0
DA:50,0
DA:52,0
DA:54,0
DA:55,0
DA:57,0
DA:59,0
DA:60,0
DA:61,0
DA:62,0
DA:64,0
DA:67,0
DA:68,0
DA:69,0
DA:70,0
DA:71,0
DA:72,0
DA:74,0
DA:77,0
DA:78,0
DA:79,0
DA:80,0
DA:81,0
DA:84,0
DA:85,0
DA:86,0
DA:87,0
DA:88,0
DA:89,0
DA:90,0
DA:91,0
DA:92,0
DA:93,0
DA:94,0
DA:95,0
DA:96,0
DA:97,0
DA:98,0
DA:99,0
DA:100,0
DA:101,0
DA:102,0
DA:103,0
DA:104,0
DA:105,0
DA:107,0
DA:110,0
DA:111,0
DA:112,0
DA:113,0
DA:114,0
DA:115,0
DA:116,0
DA:117,0
DA:118,0
DA:119,0
DA:121,0
DA:122,0
DA:123,0
DA:124,0
DA:125,0
DA:126,0
DA:127,0
DA:128,0
DA:129,0
DA:130,0
DA:132,0
DA:134,0
BRF:0
BRH:0
LF:96
LH:0
end_of_record
SF:/home/noah/src/depyler/crates/depyler/src/main.rs
FN:236,_RNCNvCskQUtu2ZWqSn_7depyler15analyze_command0B3_
FN:136,_RNCNvCskQUtu2ZWqSn_7depyler17transpile_command0B3_
FN:19,_RNCNvXs0_CskQUtu2ZWqSn_7depylerNtB7_3CliNtNtCs3T0uO9D1TMr_12clap_builder6derive14FromArgMatches20from_arg_matches_mut0B7_
FN:19,_RNCNvXs0_CskQUtu2ZWqSn_7depylerNtB7_3CliNtNtCs3T0uO9D1TMr_12clap_builder6derive14FromArgMatches27update_from_arg_matches_mut0B7_
FN:27,_RNCNvXs2_CskQUtu2ZWqSn_7depylerNtB7_8CommandsNtNtCs3T0uO9D1TMr_12clap_builder6derive14FromArgMatches20from_arg_matches_mut0B7_
FN:39,_RNCNvXs2_CskQUtu2ZWqSn_7depylerNtB7_8CommandsNtNtCs3T0uO9D1TMr_12clap_builder6derive14FromArgMatches20from_arg_matches_muts0_0B7_
FN:45,_RNCNvXs2_CskQUtu2ZWqSn_7depylerNtB7_8CommandsNtNtCs3T0uO9D1TMr_12clap_builder6derive14FromArgMatches20from_arg_matches_muts1_0B7_
FN:49,_RNCNvXs2_CskQUtu2ZWqSn_7depylerNtB7_8CommandsNtNtCs3T0uO9D1TMr_12clap_builder6derive14FromArgMatches20from_arg_matches_muts2_0B7_
FN:55,_RNCNvXs2_CskQUtu2ZWqSn_7depylerNtB7_8CommandsNtNtCs3T0uO9D1TMr_12clap_builder6derive14FromArgMatches20from_arg_matches_muts3_0B7_
FN:35,_RNCNvXs2_CskQUtu2ZWqSn_7depylerNtB7_8CommandsNtNtCs3T0uO9D1TMr_12clap_builder6derive14FromArgMatches20from_arg_matches_muts_0B7_
FN:27,_RNCNvXs2_CskQUtu2ZWqSn_7depylerNtB7_8CommandsNtNtCs3T0uO9D1TMr_12clap_builder6derive14FromArgMatches27update_from_arg_matches_mut0B7_
FN:39,_RNCNvXs2_CskQUtu2ZWqSn_7depylerNtB7_8CommandsNtNtCs3T0uO9D1TMr_12clap_builder6derive14FromArgMatches27update_from_arg_matches_muts0_0B7_
FN:45,_RNCNvXs2_CskQUtu2ZWqSn_7depylerNtB7_8CommandsNtNtCs3T0uO9D1TMr_12clap_builder6derive14FromArgMatches27update_from_arg_matches_muts1_0B7_
FN:49,_RNCNvXs2_CskQUtu2ZWqSn_7depylerNtB7_8CommandsNtNtCs3T0uO9D1TMr_12clap_builder6derive14FromArgMatches27update_from_arg_matches_muts2_0B7_
FN:55,_RNCNvXs2_CskQUtu2ZWqSn_7depylerNtB7_8CommandsNtNtCs3T0uO9D1TMr_12clap_builder6derive14FromArgMatches27update_from_arg_matches_muts3_0B7_
FN:35,_RNCNvXs2_CskQUtu2ZWqSn_7depylerNtB7_8CommandsNtNtCs3T0uO9D1TMr_12clap_builder6derive14FromArgMatches27update_from_arg_matches_muts_0B7_
FN:264,_RNvCskQUtu2ZWqSn_7depyler13check_command
FN:177,_RNvCskQUtu2ZWqSn_7depyler15analyze_command
FN:290,_RNvCskQUtu2ZWqSn_7depyler17complexity_rating
FN:86,_RNvCskQUtu2ZWqSn_7depyler17transpile_command
FN:59,_RNvCskQUtu2ZWqSn_7depyler4main
FNDA:0,_RNCNvCskQUtu2ZWqSn_7depyler15analyze_command0B3_
FNDA:0,_RNCNvCskQUtu2ZWqSn_7depyler17transpile_command0B3_
FNDA:0,_RNCNvXs0_CskQUtu2ZWqSn_7depylerNtB7_3CliNtNtCs3T0uO9D1TMr_12clap_builder6derive14FromArgMatches20from_arg_matches_mut0B7_
FNDA:0,_RNCNvXs0_CskQUtu2ZWqSn_7depylerNtB7_3CliNtNtCs3T0uO9D1TMr_12clap_builder6derive14FromArgMatches27update_from_arg_matches_mut0B7_
FNDA:0,_RNCNvXs2_CskQUtu2ZWqSn_7depylerNtB7_8CommandsNtNtCs3T0uO9D1TMr_12clap_builder6derive14FromArgMatches20from_arg_matches_mut0B7_
FNDA:0,_RNCNvXs2_CskQUtu2ZWqSn_7depylerNtB7_8CommandsNtNtCs3T0uO9D1TMr_12clap_builder6derive14FromArgMatches20from_arg_matches_muts0_0B7_
FNDA:0,_RNCNvXs2_CskQUtu2ZWqSn_7depylerNtB7_8CommandsNtNtCs3T0uO9D1TMr_12clap_builder6derive14FromArgMatches20from_arg_matches_muts1_0B7_
FNDA:0,_RNCNvXs2_CskQUtu2ZWqSn_7depylerNtB7_8CommandsNtNtCs3T0uO9D1TMr_12clap_builder6derive14FromArgMatches20from_arg_matches_muts2_0B7_
FNDA:0,_RNCNvXs2_CskQUtu2ZWqSn_7depylerNtB7_8CommandsNtNtCs3T0uO9D1TMr_12clap_builder6derive14FromArgMatches20from_arg_matches_muts3_0B7_
FNDA:0,_RNCNvXs2_CskQUtu2ZWqSn_7depylerNtB7_8CommandsNtNtCs3T0uO9D1TMr_12clap_builder6derive14FromArgMatches20from_arg_matches_muts_0B7_
FNDA:0,_RNCNvXs2_CskQUtu2ZWqSn_7depylerNtB7_8CommandsNtNtCs3T0uO9D1TMr_12clap_builder6derive14FromArgMatches27update_from_arg_matches_mut0B7_
FNDA:0,_RNCNvXs2_CskQUtu2ZWqSn_7depylerNtB7_8CommandsNtNtCs3T0uO9D1TMr_12clap_builder6derive14FromArgMatches27update_from_arg_matches_muts0_0B7_
FNDA:0,_RNCNvXs2_CskQUtu2ZWqSn_7depylerNtB7_8CommandsNtNtCs3T0uO9D1TMr_12clap_builder6derive14FromArgMatches27update_from_arg_matches_muts1_0B7_
FNDA:0,_RNCNvXs2_CskQUtu2ZWqSn_7depylerNtB7_8CommandsNtNtCs3T0uO9D1TMr_12clap_builder6derive14FromArgMatches27update_from_arg_matches_muts2_0B7_
FNDA:0,_RNCNvXs2_CskQUtu2ZWqSn_7depylerNtB7_8CommandsNtNtCs3T0uO9D1TMr_12clap_builder6derive14FromArgMatches27update_from_arg_matches_muts3_0B7_
FNDA:0,_RNCNvXs2_CskQUtu2ZWqSn_7depylerNtB7_8CommandsNtNtCs3T0uO9D1TMr_12clap_builder6derive14FromArgMatches27update_from_arg_matches_muts_0B7_
FNDA:0,_RNvCskQUtu2ZWqSn_7depyler13check_command
FNDA:0,_RNvCskQUtu2ZWqSn_7depyler15analyze_command
FNDA:0,_RNvCskQUtu2ZWqSn_7depyler17complexity_rating
FNDA:0,_RNvCskQUtu2ZWqSn_7depyler17transpile_command
FNDA:0,_RNvCskQUtu2ZWqSn_7depyler4main
FNF:14
FNH:0
DA:19,0
DA:27,0
DA:35,0
DA:39,0
DA:45,0
DA:49,0
DA:55,0
DA:59,0
DA:60,0
DA:63,0
DA:64,0
DA:65,0
DA:66,0
DA:68,0
DA:69,0
DA:70,0
DA:71,0
DA:72,0
DA:73,0
DA:75,0
DA:76,0
DA:78,0
DA:79,0
DA:83,0
DA:84,0
DA:86,0
DA:87,0
DA:88,0
DA:89,0
DA:90,0
DA:91,0
DA:92,0
DA:93,0
DA:94,0
DA:95,0
DA:98,0
DA:99,0
DA:100,0
DA:101,0
DA:102,0
DA:103,0
DA:104,0
DA:105,0
DA:106,0
DA:107,0
DA:108,0
DA:109,0
DA:110,0
DA:111,0
DA:112,0
DA:113,0
DA:114,0
DA:115,0
DA:116,0
DA:117,0
DA:118,0
DA:119,0
DA:120,0
DA:121,0
DA:122,0
DA:123,0
DA:124,0
DA:125,0
DA:126,0
DA:127,0
DA:128,0
DA:129,0
DA:130,0
DA:131,0
DA:132,0
DA:135,0
DA:136,0
DA:137,0
DA:138,0
DA:139,0
DA:140,0
DA:141,0
DA:142,0
DA:143,0
DA:144,0
DA:145,0
DA:146,0
DA:147,0
DA:148,0
DA:149,0
DA:150,0
DA:151,0
DA:152,0
DA:155,0
DA:156,0
DA:157,0
DA:158,0
DA:159,0
DA:160,0
DA:161,0
DA:162,0
DA:163,0
DA:164,0
DA:165,0
DA:166,0
DA:167,0
DA:168,0
DA:169,0
DA:170,0
DA:171,0
DA:172,0
DA:174,0
DA:175,0
DA:177,0
DA:178,0
DA:179,0
DA:182,0
DA:183,0
DA:186,0
DA:188,0
DA:190,0
DA:193,0
DA:194,0
DA:196,0
DA:197,0
DA:198,0
DA:199,0
DA:203,0
DA:204,0
DA:205,0
DA:206,0
DA:207,0
DA:208,0
DA:209,0
DA:210,0
DA:211,0
DA:212,0
DA:213,0
DA:214,0
DA:215,0
DA:216,0
DA:217,0
DA:218,0
DA:219,0
DA:220,0
DA:221,0
DA:222,0
DA:223,0
DA:224,0
DA:225,0
DA:226,0
DA:228,0
DA:232,0
DA:233,0
DA:234,0
DA:235,0
DA:236,0
DA:237,0
DA:238,0
DA:239,0
DA:240,0
DA:241,0
DA:242,0
DA:243,0
DA:244,0
DA:245,0
DA:246,0
DA:247,0
DA:248,0
DA:250,0
DA:251,0
DA:252,0
DA:253,0
DA:254,0
DA:255,0
DA:256,0
DA:257,0
DA:261,0
DA:262,0
DA:264,0
DA:265,0
DA:266,0
DA:267,0
DA:268,0
DA:269,0
DA:271,0
DA:272,0
DA:273,0
DA:274,0
DA:275,0
DA:276,0
DA:278,0
DA:279,0
DA:280,0
DA:281,0
DA:282,0
DA:283,0
DA:284,0
DA:285,0
DA:288,0
DA:290,0
DA:291,0
DA:292,0
DA:293,0
DA:294,0
DA:296,0
DA:298,0
BRF:0
BRH:0
LF:205
LH:0
end_of_record